
pacemaker.elf:     file format elf32-littlenios2
pacemaker.elf
architecture: nios2:r1, flags 0x00000112:
EXEC_P, HAS_SYMS, D_PAGED
start address 0x00800244

Program Header:
    LOAD off    0x00001000 vaddr 0x00800000 paddr 0x00800000 align 2**12
         filesz 0x00000020 memsz 0x00000020 flags r-x
    LOAD off    0x00001020 vaddr 0x00800020 paddr 0x00800020 align 2**12
         filesz 0x0000a438 memsz 0x0000a438 flags r-x
    LOAD off    0x0000b458 vaddr 0x0080a458 paddr 0x0080c0b0 align 2**12
         filesz 0x00001c58 memsz 0x00001c58 flags rw-
    LOAD off    0x0000dd08 vaddr 0x0080dd08 paddr 0x0080dd08 align 2**12
         filesz 0x00000000 memsz 0x00000324 flags rw-

Sections:
Idx Name          Size      VMA       LMA       File off  Algn
  0 .entry        00000020  00800000  00800000  00001000  2**5
                  CONTENTS, ALLOC, LOAD, READONLY, CODE
  1 .exceptions   00000224  00800020  00800020  00001020  2**2
                  CONTENTS, ALLOC, LOAD, READONLY, CODE
  2 .text         00009f40  00800244  00800244  00001244  2**2
                  CONTENTS, ALLOC, LOAD, READONLY, CODE
  3 .rodata       000002d4  0080a184  0080a184  0000b184  2**2
                  CONTENTS, ALLOC, LOAD, READONLY, DATA
  4 .rwdata       00001c58  0080a458  0080c0b0  0000b458  2**2
                  CONTENTS, ALLOC, LOAD, DATA, SMALL_DATA
  5 .bss          00000324  0080dd08  0080dd08  0000dd08  2**2
                  ALLOC, SMALL_DATA
  6 .sdram        00000000  0080e02c  0080e02c  0000d0b0  2**0
                  CONTENTS
  7 .onchip_mem   00000000  01008000  01008000  0000d0b0  2**0
                  CONTENTS
  8 .comment      00000023  00000000  00000000  0000d0b0  2**0
                  CONTENTS, READONLY
  9 .debug_aranges 00000b68  00000000  00000000  0000d0d8  2**3
                  CONTENTS, READONLY, DEBUGGING
 10 .debug_info   00019ab6  00000000  00000000  0000dc40  2**0
                  CONTENTS, READONLY, DEBUGGING
 11 .debug_abbrev 00006bb3  00000000  00000000  000276f6  2**0
                  CONTENTS, READONLY, DEBUGGING
 12 .debug_line   00008773  00000000  00000000  0002e2a9  2**0
                  CONTENTS, READONLY, DEBUGGING
 13 .debug_frame  00001a88  00000000  00000000  00036a1c  2**2
                  CONTENTS, READONLY, DEBUGGING
 14 .debug_str    00003284  00000000  00000000  000384a4  2**0
                  CONTENTS, READONLY, DEBUGGING
 15 .debug_loc    00004a4c  00000000  00000000  0003b728  2**0
                  CONTENTS, READONLY, DEBUGGING
 16 .debug_alt_sim_info 00000060  00000000  00000000  00040174  2**2
                  CONTENTS, READONLY, DEBUGGING
 17 .debug_ranges 00000698  00000000  00000000  000401d8  2**3
                  CONTENTS, READONLY, DEBUGGING
 18 .thread_model 00000003  00000000  00000000  00044d7a  2**0
                  CONTENTS, READONLY
 19 .cpu          00000003  00000000  00000000  00044d7d  2**0
                  CONTENTS, READONLY
 20 .qsys         00000001  00000000  00000000  00044d80  2**0
                  CONTENTS, READONLY
 21 .simulation_enabled 00000001  00000000  00000000  00044d81  2**0
                  CONTENTS, READONLY
 22 .stderr_dev   00000009  00000000  00000000  00044d82  2**0
                  CONTENTS, READONLY
 23 .stdin_dev    00000009  00000000  00000000  00044d8b  2**0
                  CONTENTS, READONLY
 24 .stdout_dev   00000009  00000000  00000000  00044d94  2**0
                  CONTENTS, READONLY
 25 .sopc_system_name 00000004  00000000  00000000  00044d9d  2**0
                  CONTENTS, READONLY
 26 .quartus_project_dir 00000041  00000000  00000000  00044da1  2**0
                  CONTENTS, READONLY
 27 .jdi          00003538  00000000  00000000  00044de2  2**0
                  CONTENTS, READONLY
 28 .sopcinfo     000675c3  00000000  00000000  0004831a  2**0
                  CONTENTS, READONLY
SYMBOL TABLE:
00800000 l    d  .entry	00000000 .entry
00800020 l    d  .exceptions	00000000 .exceptions
00800244 l    d  .text	00000000 .text
0080a184 l    d  .rodata	00000000 .rodata
0080a458 l    d  .rwdata	00000000 .rwdata
0080dd08 l    d  .bss	00000000 .bss
0080e02c l    d  .sdram	00000000 .sdram
01008000 l    d  .onchip_mem	00000000 .onchip_mem
00000000 l    d  .comment	00000000 .comment
00000000 l    d  .debug_aranges	00000000 .debug_aranges
00000000 l    d  .debug_info	00000000 .debug_info
00000000 l    d  .debug_abbrev	00000000 .debug_abbrev
00000000 l    d  .debug_line	00000000 .debug_line
00000000 l    d  .debug_frame	00000000 .debug_frame
00000000 l    d  .debug_str	00000000 .debug_str
00000000 l    d  .debug_loc	00000000 .debug_loc
00000000 l    d  .debug_alt_sim_info	00000000 .debug_alt_sim_info
00000000 l    d  .debug_ranges	00000000 .debug_ranges
00000000 l    df *ABS*	00000000 ../pacemaker_bsp//obj/HAL/src/crt0.o
0080028c l       .text	00000000 alt_after_alt_main
00000000 l    df *ABS*	00000000 alt_irq_handler.c
00000000 l    df *ABS*	00000000 alt_instruction_exception_entry.c
00000000 l    df *ABS*	00000000 main.c
00000000 l    df *ABS*	00000000 pacemaker.c
00000000 l    df *ABS*	00000000 puts.c
00000000 l    df *ABS*	00000000 strlen.c
00000000 l    df *ABS*	00000000 findfp.c
00803408 l     F .text	00000008 __fp_unlock
0080341c l     F .text	0000019c __sinit.part.1
008035b8 l     F .text	00000008 __fp_lock
00000000 l    df *ABS*	00000000 fvwrite.c
00000000 l    df *ABS*	00000000 fwalk.c
00000000 l    df *ABS*	00000000 impure.c
0080a458 l     O .rwdata	00000424 impure_data
00000000 l    df *ABS*	00000000 mallocr.c
00000000 l    df *ABS*	00000000 memchr.c
00000000 l    df *ABS*	00000000 memcpy.c
00000000 l    df *ABS*	00000000 memmove.c
00000000 l    df *ABS*	00000000 memset.c
00000000 l    df *ABS*	00000000 mallocr.c
00000000 l    df *ABS*	00000000 sbrkr.c
00000000 l    df *ABS*	00000000 stdio.c
00000000 l    df *ABS*	00000000 writer.c
00000000 l    df *ABS*	00000000 wsetup.c
00000000 l    df *ABS*	00000000 closer.c
00000000 l    df *ABS*	00000000 fclose.c
00000000 l    df *ABS*	00000000 fflush.c
00000000 l    df *ABS*	00000000 mallocr.c
00000000 l    df *ABS*	00000000 int_errno.c
00000000 l    df *ABS*	00000000 lseekr.c
00000000 l    df *ABS*	00000000 makebuf.c
00000000 l    df *ABS*	00000000 readr.c
00000000 l    df *ABS*	00000000 fstatr.c
00000000 l    df *ABS*	00000000 isattyr.c
00000000 l    df *ABS*	00000000 lib2-divmod.c
00000000 l    df *ABS*	00000000 alt_alarm_start.c
00000000 l    df *ABS*	00000000 alt_close.c
00806190 l     F .text	0000003c alt_get_errno
00000000 l    df *ABS*	00000000 alt_dev.c
0080629c l     F .text	0000002c alt_dev_null_write
00000000 l    df *ABS*	00000000 alt_errno.c
00000000 l    df *ABS*	00000000 alt_fstat.c
008062c8 l     F .text	0000003c alt_get_errno
00000000 l    df *ABS*	00000000 alt_isatty.c
008063b4 l     F .text	0000003c alt_get_errno
00000000 l    df *ABS*	00000000 alt_load.c
00806494 l     F .text	00000068 alt_load_section
00000000 l    df *ABS*	00000000 alt_lseek.c
00806580 l     F .text	0000003c alt_get_errno
00000000 l    df *ABS*	00000000 alt_main.c
00000000 l    df *ABS*	00000000 alt_malloc_lock.c
00000000 l    df *ABS*	00000000 alt_read.c
00806754 l     F .text	0000003c alt_get_errno
00000000 l    df *ABS*	00000000 alt_release_fd.c
00000000 l    df *ABS*	00000000 alt_sbrk.c
0080c098 l     O .rwdata	00000004 heap_end
00000000 l    df *ABS*	00000000 alt_tick.c
00000000 l    df *ABS*	00000000 alt_write.c
00806b44 l     F .text	0000003c alt_get_errno
00000000 l    df *ABS*	00000000 alt_sys_init.c
00806c78 l     F .text	00000034 alt_dev_reg
0080ae2c l     O .rwdata	00001060 jtag_uart
0080be8c l     O .rwdata	00000120 lcd
0080bfac l     O .rwdata	000000c4 uart
00000000 l    df *ABS*	00000000 altera_avalon_jtag_uart_fd.c
00000000 l    df *ABS*	00000000 altera_avalon_jtag_uart_init.c
00806fa0 l     F .text	0000020c altera_avalon_jtag_uart_irq
008071ac l     F .text	000000a0 altera_avalon_jtag_uart_timeout
00000000 l    df *ABS*	00000000 altera_avalon_jtag_uart_ioctl.c
00000000 l    df *ABS*	00000000 altera_avalon_jtag_uart_read.c
00000000 l    df *ABS*	00000000 altera_avalon_jtag_uart_write.c
00000000 l    df *ABS*	00000000 altera_avalon_lcd_16207.c
0080c0a4 l     O .rwdata	00000004 colstart
008077e4 l     F .text	000000b8 lcd_write_command
0080789c l     F .text	000000d8 lcd_write_data
00807974 l     F .text	000000d0 lcd_clear_screen
00807a44 l     F .text	000001ec lcd_repaint_screen
00807c30 l     F .text	000000cc lcd_scroll_up
00807cfc l     F .text	000002ac lcd_handle_escape
00808480 l     F .text	000000ac alt_lcd_16207_timeout
00000000 l    df *ABS*	00000000 altera_avalon_lcd_16207_fd.c
00000000 l    df *ABS*	00000000 altera_avalon_timer_sc.c
008086c0 l     F .text	00000078 alt_avalon_timer_sc_irq
00000000 l    df *ABS*	00000000 altera_avalon_uart_fd.c
00000000 l    df *ABS*	00000000 altera_avalon_uart_init.c
00808970 l     F .text	0000009c altera_avalon_uart_irq
00808a0c l     F .text	000000e4 altera_avalon_uart_rxirq
00808af0 l     F .text	00000148 altera_avalon_uart_txirq
00000000 l    df *ABS*	00000000 altera_avalon_uart_read.c
00808c8c l     F .text	0000003c alt_get_errno
00000000 l    df *ABS*	00000000 altera_avalon_uart_write.c
00808ea4 l     F .text	0000003c alt_get_errno
00000000 l    df *ABS*	00000000 alt_dcache_flush_all.c
00000000 l    df *ABS*	00000000 alt_dev_llist_insert.c
008090d4 l     F .text	0000003c alt_get_errno
00000000 l    df *ABS*	00000000 alt_do_ctors.c
00000000 l    df *ABS*	00000000 alt_do_dtors.c
00000000 l    df *ABS*	00000000 alt_icache_flush_all.c
00000000 l    df *ABS*	00000000 alt_iic.c
00000000 l    df *ABS*	00000000 alt_iic_isr_register.c
00000000 l    df *ABS*	00000000 alt_io_redirect.c
00809548 l     F .text	000000c4 alt_open_fd
00000000 l    df *ABS*	00000000 alt_irq_vars.c
00000000 l    df *ABS*	00000000 alt_open.c
00809688 l     F .text	0000003c alt_get_errno
008096c4 l     F .text	000000c4 alt_file_locked
00000000 l    df *ABS*	00000000 alt_usleep.c
00000000 l    df *ABS*	00000000 altera_nios2_gen2_irq.c
00000000 l    df *ABS*	00000000 alt_busy_sleep.c
00000000 l    df *ABS*	00000000 alt_find_dev.c
00000000 l    df *ABS*	00000000 alt_find_file.c
00000000 l    df *ABS*	00000000 alt_get_fd.c
00000000 l    df *ABS*	00000000 alt_icache_flush.c
00000000 l    df *ABS*	00000000 atexit.c
00000000 l    df *ABS*	00000000 ctype_.c
0080a2d7 l     O .rodata	00000180 _ctype_b
00000000 l    df *ABS*	00000000 exit.c
00000000 l    df *ABS*	00000000 memcmp.c
00000000 l    df *ABS*	00000000 __atexit.c
00000000 l    df *ABS*	00000000 __call_atexit.c
00000000 l    df *ABS*	00000000 alt_exit.c
0080dd34 g     O .bss	00000001 _cg42
0080ded0 g     O .bss	00000004 alt_instruction_exception_handler
0080dd35 g     O .bss	00000001 g83
0080dd36 g     O .bss	00000001 g40
00805e5c g     F .text	00000054 _isatty_r
0080dd37 g     O .bss	00000001 g91
00806690 g     F .text	0000007c alt_main
0080329c g     F .text	000000c0 _puts_r
0080df2c g     O .bss	00000100 alt_irq
00805b84 g     F .text	00000060 _lseek_r
0080dd38 g     O .bss	00000001 g139
0080dd39 g     O .bss	00000001 g113_e6
0080dd3a g     O .bss	00000001 g4
0080c0b0 g       *ABS*	00000000 __flash_rwdata_start
0080dd3b g     O .bss	00000001 g108
0080dd3c g     O .bss	00000001 g19
0080dd3d g     O .bss	00000001 g152
0080dd3e g     O .bss	00000001 g111
0080dd3f g     O .bss	00000001 g137_e2
0080dd40 g     O .bss	00000001 g160
0080dd41 g     O .bss	00000001 g60b
0080e02c g       *ABS*	00000000 __alt_heap_start
0080dd44 g     O .bss	00000004 t_lri
00805138 g     F .text	0000005c __sseek
00803758 g     F .text	00000010 __sinit
0080dd48 g     O .bss	00000001 g55
0080dd49 g     O .bss	00000001 g27
008035c0 g     F .text	00000068 __sfmoreglue
00806730 g     F .text	00000024 __malloc_unlock
0080dd4a g     O .bss	00000001 _cg116
0080dd4c g     O .bss	00000004 to_lri
0080dd50 g     O .bss	00000001 g153
0080dd51 g     O .bss	00000001 g112
0080dd52 g     O .bss	00000001 g78b
0080dd53 g     O .bss	00000001 g3
00804824 g     F .text	0000015c memmove
0080dd54 g     O .bss	00000001 g146
0080dd55 g     O .bss	00000001 g103
0080dd56 g     O .bss	00000001 g47
0080dd57 g     O .bss	00000001 g85
0080dd58 g     O .bss	00000001 g42
00803740 g     F .text	00000018 _cleanup
0080dd18 g     O .bss	00000004 ap_count
0080dd59 g     O .bss	00000001 LRI_p
0080dd5a g     O .bss	00000001 g9
0080defc g     O .bss	00000018 timer
0080dd5b g     O .bss	00000001 g127
0080dd5c g     O .bss	00000001 g34b
0080dd5d g     O .bss	00000001 _cg125
0080dd5e g     O .bss	00000001 _cg7
0080dd60 g     O .bss	00000004 _PRE_GO
0080dd64 g     O .bss	00000001 PRE_g3
0080dd65 g     O .bss	00000001 g145
0080dd66 g     O .bss	00000001 g102
0080dd67 g     O .bss	00000001 g140
0080990c g     F .text	00000024 altera_nios2_gen2_irq_init
0080dd68 g     O .bss	00000001 g156
0080dd69 g     O .bss	00000001 g115
00800000 g     F .entry	0000001c __reset
0080dd6c g     O .bss	00000004 t_aei
0080dd70 g     O .bss	00000001 _cg123
0080dd71 g     O .bss	00000001 _trig6
0080dd1c g     O .bss	00000004 buttonValue
00800020 g       *ABS*	00000000 __flash_exceptions_start
00805e00 g     F .text	0000005c _fstat_r
0080deb4 g     O .bss	00000004 errno
0080dd72 g     O .bss	00000001 g87
0080dd73 g     O .bss	00000001 g44
008050b4 g     F .text	00000008 __seofread
0080dd74 g     O .bss	00000001 g150
0080dd75 g     O .bss	00000001 g123
0080debc g     O .bss	00000004 alt_argv
00814070 g       *ABS*	00000000 _gp
008098dc g     F .text	00000030 usleep
0080dd76 g     O .bss	00000001 _cg8
008006c8 g     F .text	000000b0 reset
0080df14 g     O .bss	00000018 timer2
0080dd77 g     O .bss	00000001 g92
0080dd78 g     O .bss	00000001 g1
0080dd79 g     O .bss	00000001 g61
0080dd08 g     O .bss	00000004 VLED1
0080acac g     O .rwdata	00000180 alt_fd_list
0080dd7a g     O .bss	00000001 g135
0080dd7b g     O .bss	00000001 g71
0080dd7c g     O .bss	00000001 _cg153
0080dd7d g     O .bss	00000001 LRI
00809a88 g     F .text	00000090 alt_find_dev
008046dc g     F .text	00000148 memcpy
0080dd20 g     O .bss	00000004 buttonValuePrevious
0080dd7e g     O .bss	00000001 g35_e2
0080dd7f g     O .bss	00000001 g126
0080dd80 g     O .bss	00000001 g150_e2
00803410 g     F .text	0000000c _cleanup_r
0080dd81 g     O .bss	00000001 g82
0080960c g     F .text	0000007c alt_io_redirect
0080dd82 g     O .bss	00000001 g93_e1
0080a184 g       *ABS*	00000000 __DTOR_END__
0080dd83 g     O .bss	00000001 _cg98
0080dd84 g     O .bss	00000001 g12
0080335c g     F .text	00000014 puts
00809d54 g     F .text	0000009c alt_exception_cause_generated_bad_addr
0080dd85 g     O .bss	00000001 g97
0080dd86 g     O .bss	00000001 g52
0080dd88 g     O .bss	00000004 to_uri
0080dd8c g     O .bss	00000001 g99_e2
0080dd8d g     O .bss	00000001 g54_e2
0080dd8e g     O .bss	00000001 _cg85
008073a4 g     F .text	0000021c altera_avalon_jtag_uart_read
00805fa8 g     F .text	00000064 .hidden __udivsi3
008063f0 g     F .text	000000a4 isatty
0080dd8f g     O .bss	00000001 g17
0080dd90 g     O .bss	00000001 PRE_g77
0080dd91 g     O .bss	00000001 g76
0080dd92 g     O .bss	00000001 g31
00809cc4 g     F .text	00000090 alt_icache_flush
0080dd93 g     O .bss	00000001 g37
0080deb0 g     O .bss	00000004 __malloc_top_pad
0080dd94 g     O .bss	00000001 g149b
0080dd95 g     O .bss	00000001 _cg149
0080dd96 g     O .bss	00000001 g62
008037a8 g     F .text	000004bc __sfvwrite_r
0080500c g     F .text	00000054 _sbrk_r
0080dd97 g     O .bss	00000001 g84
0080dd98 g     O .bss	00000001 g41
0080dd99 g     O .bss	00000001 g159
0080dd9a g     O .bss	00000001 g118
0080dd9b g     O .bss	00000001 PRE_g40
00805da0 g     F .text	00000060 _read_r
0080dd9c g     O .bss	00000001 PRE_g49
0080dd9d g     O .bss	00000001 _trig3
0080c090 g     O .rwdata	00000004 alt_max_fd
0080dd9e g     O .bss	00000001 g24_e2
008053a4 g     F .text	000000f0 _fclose_r
0080dd9f g     O .bss	00000001 AVI_p
0080dda0 g     O .bss	00000001 PRE_g94
00805720 g     F .text	00000030 fflush
0080dda1 g     O .bss	00000001 _cg34
0080deac g     O .bss	00000004 __malloc_max_sbrked_mem
0080dda2 g     O .bss	00000001 g18
0080dda3 g     O .bss	00000001 ap
0080dda4 g     O .bss	00000001 PRE_g81
0080dda5 g     O .bss	00000001 g73_e1
0080dda6 g     O .bss	00000001 PRE_g104
0080dda7 g     O .bss	00000001 PRE_g10
0080dd24 g     O .bss	00000004 ledTimeCount
0080dda8 g     O .bss	00000001 g132
008065bc g     F .text	000000d4 lseek
0080dda9 g     O .bss	00000001 g68_e4
0080c070 g     O .rwdata	00000004 _global_impure_ptr
0080ddaa g     O .bss	00000001 g48
00804aa8 g     F .text	00000564 _realloc_r
0080e02c g       *ABS*	00000000 __bss_end
00809458 g     F .text	000000f0 alt_iic_isr_register
0080ddac g     O .bss	00000004 t_vrp
00806a3c g     F .text	00000108 alt_tick
0080ddb0 g     O .bss	00000001 _cg111
0080ddb1 g     O .bss	00000001 g38
0080ddb2 g     O .bss	00000001 g148
0080ddb3 g     O .bss	00000001 g105
0080dd14 g     O .bss	00000004 buttonPressed2
008088c4 g     F .text	000000ac altera_avalon_uart_init
0080036c g     F .text	00000040 led_timer_isr
00803778 g     F .text	00000018 __fp_lock_all
0080940c g     F .text	0000004c alt_ic_irq_enabled
008069a0 g     F .text	0000009c alt_alarm_stop
0080decc g     O .bss	00000004 alt_irq_active
0080ddb4 g     O .bss	00000001 g158
0080ddb5 g     O .bss	00000001 g117
0080ddb6 g     O .bss	00000001 _cg20
01008000 g       *ABS*	00000000 __alt_mem_onchip_mem
0080ddb7 g     O .bss	00000001 _cg118
008000fc g     F .exceptions	000000d4 alt_irq_handler
0080ac84 g     O .rwdata	00000028 alt_dev_null
0080ddb8 g     O .bss	00000001 _cg82
0080908c g     F .text	00000048 alt_dcache_flush_all
0080ddb9 g     O .bss	00000001 URI_p
0080ddba g     O .bss	00000001 _cg28
0080ddbb g     O .bss	00000001 g64
0080ddbc g     O .bss	00000001 g21
0080ddbd g     O .bss	00000001 _trig
0080ddbe g     O .bss	00000001 URI
0080ddbf g     O .bss	00000001 g139_e7
0080ddc0 g     O .bss	00000001 _cg107
0080ddc4 g     O .bss	00000004 t_avi
0080ddc8 g     O .bss	00000001 g79
0080ddc9 g     O .bss	00000001 g34
0080c0b0 g       *ABS*	00000000 __ram_rwdata_end
0080ddca g     O .bss	00000001 g5
0080c088 g     O .rwdata	00000008 alt_dev_list
0080ddcb g     O .bss	00000001 g94
0080ddcc g     O .bss	00000001 g151
0080ddcd g     O .bss	00000001 g110
0080ddce g     O .bss	00000001 g49
00806b80 g     F .text	000000f8 write
0080ddcf g     O .bss	00000001 g2
0080ddd0 g     O .bss	00000001 g7
0080ddd1 g     O .bss	00000001 _cg53
0080ddd2 g     O .bss	00000001 _cg16
0080a458 g       *ABS*	00000000 __ram_rodata_end
0080ddd3 g     O .bss	00000001 PRE_g101
00806304 g     F .text	000000b0 fstat
0080ddd4 g     O .bss	00000001 g80
0080600c g     F .text	00000058 .hidden __umodsi3
0080ddd5 g     O .bss	00000001 g128
0080ddd6 g     O .bss	00000001 AVI
0080ddd7 g     O .bss	00000001 _trig4
0080ddd8 g     O .bss	00000001 g136
0080e02c g       *ABS*	00000000 end
0080ddd9 g     O .bss	00000001 vp_accept
0080ddda g     O .bss	00000001 g143
0080dddb g     O .bss	00000001 g100
00807fa8 g     F .text	000004d8 altera_avalon_lcd_16207_write
0080dddc g     O .bss	00000001 g136b
0080dddd g     O .bss	00000001 g59
0080ddde g     O .bss	00000001 g99
0080dddf g     O .bss	00000001 g54
00808ee0 g     F .text	000001ac altera_avalon_uart_write
0080dde0 g     O .bss	00000001 g66
0080dde1 g     O .bss	00000001 g23
0080dde2 g     O .bss	00000001 g111b
00806ee0 g     F .text	000000c0 altera_avalon_jtag_uart_init
008001d0 g     F .exceptions	00000074 alt_instruction_exception_entry
0080dde3 g     O .bss	00000001 _cg44
0080a184 g       *ABS*	00000000 __CTOR_LIST__
01000000 g       *ABS*	00000000 __alt_stack_pointer
0080dde4 g     O .bss	00000001 _cg87
0080dde5 g     O .bss	00000001 g48_e1
00808738 g     F .text	0000007c alt_avalon_timer_sc_init
00808814 g     F .text	00000060 altera_avalon_uart_write_fd
0080dde6 g     O .bss	00000001 g79_e2
00808874 g     F .text	00000050 altera_avalon_uart_close_fd
008075c0 g     F .text	00000224 altera_avalon_jtag_uart_write
0080dde8 g     O .bss	00000004 t_uri
00803768 g     F .text	00000004 __sfp_lock_acquire
008045f8 g     F .text	000000e4 memchr
0080ddec g     O .bss	00000001 g14
0080dded g     O .bss	00000001 PRE_g84
00805874 g     F .text	00000310 _free_r
00809fd0 g     F .text	00000180 __call_exitprocs
0080ddee g     O .bss	00000001 PRE_g148
0080ddef g     O .bss	00000001 g144
0080ddf0 g     O .bss	00000001 g101
0080c078 g     O .rwdata	00000004 __malloc_sbrk_base
00800244 g     F .text	0000004c _start
0080ddf1 g     O .bss	00000001 g155
0080ddf2 g     O .bss	00000001 g114
0080dec4 g     O .bss	00000004 _alt_tick_rate
0080ddf3 g     O .bss	00000001 g56_e3
0080ddf4 g     O .bss	00000001 g56
0080ddf5 g     O .bss	00000001 PRE_g52
0080ddf6 g     O .bss	00000001 g129
0080ddf7 g     O .bss	00000001 g131
0080dec8 g     O .bss	00000004 _alt_nticks
0080ddf8 g     O .bss	00000001 PRE_g18
0080ddf9 g     O .bss	00000001 PRE_g6
00806790 g     F .text	000000fc read
00806ce4 g     F .text	00000098 alt_sys_init
0080ddfa g     O .bss	00000001 g78
0080ddfb g     O .bss	00000001 g33
00809eb8 g     F .text	00000118 __register_exitproc
0080ddfc g     O .bss	00000001 as
0080dd28 g     O .bss	00000004 timeCount
0080ddfd g     O .bss	00000001 g122
0080724c g     F .text	00000068 altera_avalon_jtag_uart_close
0080ddfe g     O .bss	00000001 PRE_g22
0080a458 g       *ABS*	00000000 __ram_rwdata_start
0080a184 g       *ABS*	00000000 __ram_rodata_start
0080ded4 g     O .bss	00000028 __malloc_current_mallinfo
0080ddff g     O .bss	00000001 _cg60
0080de00 g     O .bss	00000001 _cg130
0080de01 g     O .bss	00000001 g88_e5
0080de02 g     O .bss	00000001 g159_e8
0080de03 g     O .bss	00000001 g134
0080de04 g     O .bss	00000001 g116b
0080de05 g     O .bss	00000001 _cg136
00806d7c g     F .text	00000060 altera_avalon_jtag_uart_read_fd
0080de06 g     O .bss	00000001 g35
00809c20 g     F .text	000000a4 alt_get_fd
0080de07 g     O .bss	00000001 _cg38
00809930 g     F .text	00000158 alt_busy_sleep
0080de08 g     O .bss	00000001 g15
00805350 g     F .text	00000054 _close_r
0080de09 g     O .bss	00000001 g90
0080de0a g     O .bss	00000001 _GO
00809e3c g     F .text	0000007c memcmp
00806e3c g     F .text	00000050 altera_avalon_jtag_uart_close_fd
0080e02c g       *ABS*	00000000 __alt_stack_base
00806e8c g     F .text	00000054 altera_avalon_jtag_uart_ioctl_fd
008051fc g     F .text	00000154 __swsetup_r
0080de0b g     O .bss	00000001 g121b
00800778 g     F .text	00002b24 tick
00803628 g     F .text	00000118 __sfp
0080de0c g     O .bss	00000001 g63
0080de0d g     O .bss	00000001 g20
0080de0e g     O .bss	00000001 g60
0080de0f g     O .bss	00000001 _cg121
0080a87c g     O .rwdata	00000408 __malloc_av_
00803774 g     F .text	00000004 __sinit_lock_release
0080de10 g     O .bss	00000004 to_aei
00805060 g     F .text	00000054 __sread
00809b18 g     F .text	00000108 alt_find_file
0080de14 g     O .bss	00000001 g93
00809110 g     F .text	000000a4 alt_dev_llist_insert
0080670c g     F .text	00000024 __malloc_lock
008068f0 g     F .text	000000b0 sbrk
0080de15 g     O .bss	00000001 g119
008056c4 g     F .text	0000005c _fflush_r
0080de16 g     O .bss	00000001 AEI
0080de17 g     O .bss	00000001 vs_accept
0080de18 g     O .bss	00000001 _trig2
0080de19 g     O .bss	00000001 g41b
0080de1a g     O .bss	00000001 PRE_g97
0080de1b g     O .bss	00000001 g12_e1
0080dd08 g       *ABS*	00000000 __bss_start
0080de1c g     O .bss	00000001 g86
0080de1d g     O .bss	00000001 g43
0080de20 g     O .bss	00000004 to_pvarp
00804980 g     F .text	00000128 memset
008003ac g     F .text	0000031c main
0080de24 g     O .bss	00000001 _cg65
0080de25 g     O .bss	00000001 VRP
0080dec0 g     O .bss	00000004 alt_envp
0080dea8 g     O .bss	00000004 __malloc_max_total_mem
0080de26 g     O .bss	00000001 _cg11
00806ddc g     F .text	00000060 altera_avalon_jtag_uart_write_fd
0080de27 g     O .bss	00000001 g98b
0080de28 g     O .bss	00000001 g36
0080852c g     F .text	00000134 altera_avalon_lcd_16207_init
0080de29 g     O .bss	00000001 g89
0080de2a g     O .bss	00000001 g46
00805194 g     F .text	00000008 __sclose
01000000 g       *ABS*	00000000 __alt_heap_limit
00805494 g     F .text	00000014 fclose
00803dec g     F .text	0000080c _malloc_r
0080de2b g     O .bss	00000001 _cg127
0080c094 g     O .rwdata	00000004 alt_errno
0080de2c g     O .bss	00000001 vs
0080de2d g     O .bss	00000001 vp
00803c64 g     F .text	000000c4 _fwalk
0080de2e g     O .bss	00000001 g95
0080de2f g     O .bss	00000001 g50
0080de30 g     O .bss	00000001 g96
0080de31 g     O .bss	00000001 g51
00805eb0 g     F .text	00000084 .hidden __divsi3
00805750 g     F .text	00000124 _malloc_trim_r
0080a184 g       *ABS*	00000000 __CTOR_END__
0080de32 g     O .bss	00000001 g138
0080de33 g     O .bss	00000001 PRE_g145
0080de34 g     O .bss	00000001 _cg158
0080de35 g     O .bss	00000001 g107
0080de36 g     O .bss	00000001 PRE_g74
0080a184 g       *ABS*	00000000 __flash_rodata_start
0080de37 g     O .bss	00000001 g154
0080de38 g     O .bss	00000001 g113
0080a184 g       *ABS*	00000000 __DTOR_LIST__
0080de39 g     O .bss	00000001 _cg78
0080de3c g     O .bss	00000004 t_pvarp
0080de40 g     O .bss	00000001 _cg41
0080de41 g     O .bss	00000001 PRE_g61
00806cac g     F .text	00000038 alt_irq_init
0080de42 g     O .bss	00000001 ap_accept
0080de43 g     O .bss	00000001 _cg112
0080688c g     F .text	00000064 alt_release_fd
0080de44 g     O .bss	00000001 g147
0080de45 g     O .bss	00000001 g104
0080de46 g     O .bss	00000001 g13
0080de47 g     O .bss	00000001 PRE_g115
0080de48 g     O .bss	00000001 g98
0080de49 g     O .bss	00000001 g53
0080de4a g     O .bss	00000001 g8
0080de4b g     O .bss	00000001 g57
00809df0 g     F .text	00000014 atexit
0080519c g     F .text	00000060 _write_r
0080de4c g     O .bss	00000001 g70
0080de4d g     O .bss	00000001 _cg47
0080de4e g     O .bss	00000001 g141
0080de4f g     O .bss	00000001 g157
0080de50 g     O .bss	00000001 g116
0080c074 g     O .rwdata	00000004 _impure_ptr
0080deb8 g     O .bss	00000004 alt_argc
0080de51 g     O .bss	00000001 g6
008054a8 g     F .text	0000021c __sflush_r
0080de52 g     O .bss	00000001 _cg19
00809214 g     F .text	00000060 _do_dtors
0080de53 g     O .bss	00000001 g72
0080de54 g     O .bss	00000001 g81
00800020 g       .exceptions	00000000 alt_irq_entry
0080de55 g     O .bss	00000001 g29_e1
0080de56 g     O .bss	00000001 PRE_g33
0080de57 g     O .bss	00000001 PRE_g110
00803790 g     F .text	00000018 __fp_unlock_all
0080de58 g     O .bss	00000001 g124
0080de59 g     O .bss	00000001 _cg108
00808660 g     F .text	00000060 altera_avalon_lcd_16207_write_fd
008002d0 g     F .text	0000009c tx_char
0080c080 g     O .rwdata	00000008 alt_fs_list
0080de5a g     O .bss	00000001 g137
0080de5b g     O .bss	00000001 g0
0080de5c g     O .bss	00000001 PRE_g120
0080de5d g     O .bss	00000001 g75
0080de5e g     O .bss	00000001 g30
00800020 g       *ABS*	00000000 __ram_exceptions_start
0080de5f g     O .bss	00000001 PRE_g15
0080de60 g     O .bss	00000001 g16
008092a8 g     F .text	00000050 alt_ic_isr_register
0080de61 g     O .bss	00000001 g58
0080de62 g     O .bss	00000001 g68
0080de63 g     O .bss	00000001 g25
0080de64 g     O .bss	00000001 _trig5
0080c0b0 g       *ABS*	00000000 _edata
008087b4 g     F .text	00000060 altera_avalon_uart_read_fd
0080de65 g     O .bss	00000001 g142
0080e02c g       *ABS*	00000000 _end
0080de66 g     O .bss	00000001 g11
00800244 g       *ABS*	00000000 __ram_exceptions_end
0080de67 g     O .bss	00000001 g131_e1
008072b4 g     F .text	000000f0 altera_avalon_jtag_uart_ioctl
0080de68 g     O .bss	00000001 g65
0080de69 g     O .bss	00000001 g22
0080de6a g     O .bss	00000001 PRE_g155
0080dd0c g     O .bss	00000004 VLED2
0080de6b g     O .bss	00000001 g28
0080de6c g     O .bss	00000001 g73
0080de6d g     O .bss	00000001 AEI_p
0080de6e g     O .bss	00000001 PRE_g59
0080de6f g     O .bss	00000001 g16b
0080de70 g     O .bss	00000001 _cg156
00809380 g     F .text	0000008c alt_ic_irq_disable
008050bc g     F .text	0000007c __swrite
0080c07c g     O .rwdata	00000004 __malloc_trim_threshold
00809e04 g     F .text	00000038 exit
0080dd2c g     O .bss	00000004 vp_count
0080de71 g     O .bss	00000001 g125
0080de72 g     O .bss	00000001 PRE_g152
0080de73 g     O .bss	00000001 PVARP
00803d28 g     F .text	000000c4 _fwalk_reent
0080de74 g     O .bss	00000001 g77
0080de75 g     O .bss	00000001 g32
00805f34 g     F .text	00000074 .hidden __modsi3
0080de76 g     O .bss	00000001 g144_e1
0080c0ac g     O .rwdata	00000004 __ctype_ptr__
0080de78 g     O .bss	00000004 to_avi
0080de7c g     O .bss	00000001 g88
0080de7d g     O .bss	00000001 g45
01000000 g       *ABS*	00000000 __alt_data_end
00800020 g     F .exceptions	00000000 alt_exception
0080376c g     F .text	00000004 __sfp_lock_release
0080de7e g     O .bss	00000001 _cg23
00800000 g       *ABS*	00000000 __alt_mem_sdram
0080de7f g     O .bss	00000001 _cg92
0080de80 g     O .bss	00000001 g130
0080a1d6 g     O .rodata	00000101 _ctype_
0080de81 g     O .bss	00000001 PRE_g64
00808c38 g     F .text	00000054 altera_avalon_uart_close
0080de82 g     O .bss	00000001 PRE_g30
0080a150 g     F .text	00000034 _exit
00800290 g     F .text	00000040 timer_isr
00806064 g     F .text	0000012c alt_alarm_start
0080de83 g     O .bss	00000001 g121
00805be4 g     F .text	000001bc __smakebuf_r
00803370 g     F .text	00000098 strlen
0080de84 g     O .bss	00000001 g39
00809788 g     F .text	00000154 open
0080de85 g     O .bss	00000001 g120
00809274 g     F .text	00000034 alt_icache_flush_all
0080de86 g     O .bss	00000001 g29
0080de87 g     O .bss	00000001 _cg4
0080de88 g     O .bss	00000001 g67
0080de89 g     O .bss	00000001 g24
0080de8a g     O .bss	00000001 g133
0080c0a8 g     O .rwdata	00000004 alt_priority_mask
0080de8b g     O .bss	00000001 g109
0080dd10 g     O .bss	00000004 buttonPressed1
0080de8c g     O .bss	00000001 _cg143
0080dd30 g     O .bss	00000004 timerContext
008092f8 g     F .text	00000088 alt_ic_irq_enable
00808cc8 g     F .text	000001dc altera_avalon_uart_read
0080de8d g     O .bss	00000001 g4b
0080de8e g     O .bss	00000001 _cg67
0080de8f g     O .bss	00000001 g149
0080de90 g     O .bss	00000001 g106
0080de91 g     O .bss	00000001 PRE_g135
0080de92 g     O .bss	00000001 PRE_g132
0080de93 g     O .bss	00000001 g10
0080c09c g     O .rwdata	00000008 alt_alarm_list
0080de94 g     O .bss	00000001 _cg62
008091b4 g     F .text	00000060 _do_ctors
0080de95 g     O .bss	00000001 PRE_g117
0080de96 g     O .bss	00000001 _cg102
0080de97 g     O .bss	00000001 g69
0080de98 g     O .bss	00000001 g26
008061cc g     F .text	000000d0 close
0080de99 g     O .bss	00000001 as_accept
008064fc g     F .text	00000084 alt_load
0080de9a g     O .bss	00000001 _cg72
0080de9b g     O .bss	00000001 PRE_g37
00803770 g     F .text	00000004 __sinit_lock_acquire
0080de9c g     O .bss	00000001 _cg105
0080dea0 g     O .bss	00000004 to_vrp
0080dea4 g     O .bss	00000001 g74



Disassembly of section .entry:

00800000 <__reset>:
#if NIOS2_ICACHE_SIZE > 0 && defined(ALT_ALLOW_CODE_AT_RESET) && (!defined(ALT_SIM_OPTIMIZE) || defined(NIOS2_ECC_PRESENT))
    /* Assume the instruction cache size is always a power of two. */
#if NIOS2_ICACHE_SIZE > 0x8000
    movhi r2, %hi(NIOS2_ICACHE_SIZE)
#else
    movui r2, NIOS2_ICACHE_SIZE
  800000:	00840014 	movui	r2,4096
#endif

0:
    initi r2
  800004:	1001483a 	initi	r2
    addi r2, r2, -NIOS2_ICACHE_LINE_SIZE
  800008:	10bff804 	addi	r2,r2,-32
    bgt r2, zero, 0b
  80000c:	00bffd16 	blt	zero,r2,800004 <__alt_mem_onchip_mem+0xff7f8004>
 * Jump to the _start entry point in the .text section if reset code
 * is allowed or if optimizing for RTL simulation.
 */
#if defined(ALT_ALLOW_CODE_AT_RESET) || defined(ALT_SIM_OPTIMIZE)
    /* Jump to the _start entry point in the .text section. */
    movhi r1, %hi(_start)
  800010:	00402034 	movhi	at,128
    ori r1, r1, %lo(_start)
  800014:	08409114 	ori	at,at,580
    jmp r1
  800018:	0800683a 	jmp	at
  80001c:	00000000 	call	0 <__reset-0x800000>

Disassembly of section .exceptions:

00800020 <alt_exception>:

#else /* ALT_EXCEPTION_STACK disabled */
        /* 
         * Reserve space on normal stack for registers about to be pushed.
         */
        addi  sp, sp, -76
  800020:	deffed04 	addi	sp,sp,-76
         * documentation for details).
         *
         * Leave a gap in the stack frame at 4(sp) for the muldiv handler to
         * store zero into.
         */
        stw   ra,  0(sp)
  800024:	dfc00015 	stw	ra,0(sp)
        stw   r1,   8(sp)
  800028:	d8400215 	stw	at,8(sp)
        stw   r2,  12(sp)
  80002c:	d8800315 	stw	r2,12(sp)
        stw   r3,  16(sp)
  800030:	d8c00415 	stw	r3,16(sp)
        stw   r4,  20(sp)
  800034:	d9000515 	stw	r4,20(sp)
        stw   r5,  24(sp)
  800038:	d9400615 	stw	r5,24(sp)
        stw   r6,  28(sp)
  80003c:	d9800715 	stw	r6,28(sp)
        stw   r7,  32(sp)
  800040:	d9c00815 	stw	r7,32(sp)
        rdctl r5, estatus   /* Read early to avoid usage stall */
  800044:	000b307a 	rdctl	r5,estatus
        stw   r8,  36(sp)
  800048:	da000915 	stw	r8,36(sp)
        stw   r9,  40(sp)
  80004c:	da400a15 	stw	r9,40(sp)
        stw   r10, 44(sp)
  800050:	da800b15 	stw	r10,44(sp)
        stw   r11, 48(sp)
  800054:	dac00c15 	stw	r11,48(sp)
        stw   r12, 52(sp)
  800058:	db000d15 	stw	r12,52(sp)
        stw   r13, 56(sp)
  80005c:	db400e15 	stw	r13,56(sp)
        stw   r14, 60(sp)
  800060:	db800f15 	stw	r14,60(sp)
        stw   r15, 64(sp)
  800064:	dbc01015 	stw	r15,64(sp)
        /*
         * ea-4 contains the address of the instruction being executed
         * when the exception occured. For interrupt exceptions, we will
         * will be re-issue the isntruction. Store it in 72(sp)
         */
        stw   r5,  68(sp)  /* estatus */
  800068:	d9401115 	stw	r5,68(sp)
        addi  r15, ea, -4  /* instruction that caused exception */
  80006c:	ebffff04 	addi	r15,ea,-4
        stw   r15,  72(sp)
  800070:	dbc01215 	stw	r15,72(sp)
#else
        /*
         * Test to see if the exception was a software exception or caused 
         * by an external interrupt, and vector accordingly.
         */
        rdctl r4, ipending
  800074:	0009313a 	rdctl	r4,ipending
        andi  r2, r5, 1
  800078:	2880004c 	andi	r2,r5,1
        beq   r2, zero, .Lnot_irq
  80007c:	10000326 	beq	r2,zero,80008c <alt_exception+0x6c>
        beq   r4, zero, .Lnot_irq
  800080:	20000226 	beq	r4,zero,80008c <alt_exception+0x6c>
        /*
         * Now that all necessary registers have been preserved, call 
         * alt_irq_handler() to process the interrupts.
         */

        call alt_irq_handler
  800084:	08000fc0 	call	8000fc <alt_irq_handler>

        .section .exceptions.irqreturn, "xa"

        br    .Lexception_exit
  800088:	00000706 	br	8000a8 <alt_exception+0x88>
         * upon completion, so we write ea (address of instruction *after*
         * the one where the exception occured) into 72(sp). The actual
         * instruction that caused the exception is written in r2, which these
         * handlers will utilize.
         */
        stw ea, 72(sp) /* EA is PC+4 so will skip over instruction causing exception */
  80008c:	df401215 	stw	ea,72(sp)
.Lunknown_16bit:
        addi.n r4, r4, 2 /* Need PC+2 to skip over instruction causing exception */
        stw r4, 72(sp)

#else /* CDX is not Enabled and all instructions are 32bits */
        ldw r2, -4(ea) /* Instruction value that caused exception */
  800090:	e8bfff17 	ldw	r2,-4(ea)
         * debugger is present) or go into an infinite loop since the
         * handling behavior is undefined; in that case we will not return here.
         */

        /* Load exception-causing address as first argument (r4) */
        addi   r4, ea, -4
  800094:	e93fff04 	addi	r4,ea,-4

        /* Call the instruction-exception entry */
        call   alt_instruction_exception_entry
  800098:	08001d00 	call	8001d0 <alt_instruction_exception_entry>
         * instruction
         *
         * Return code was 0: Skip. The instruction after the exception is
         * already stored in 72(sp).
         */
        bne   r2, r0, .Lexception_exit
  80009c:	1000021e 	bne	r2,zero,8000a8 <alt_exception+0x88>

        /*
         * Otherwise, modify 72(sp) to re-issue the instruction that caused the
         * exception.
         */
        addi  r15, ea, -4  /* instruction that caused exception */
  8000a0:	ebffff04 	addi	r15,ea,-4
        stw   r15,  72(sp)
  8000a4:	dbc01215 	stw	r15,72(sp)
        /* 
         * Restore the saved registers, so that all general purpose registers 
         * have been restored to their state at the time the interrupt occured.
         */

        ldw   r5,  68(sp)
  8000a8:	d9401117 	ldw	r5,68(sp)
        ldw   ea,  72(sp)  /* This becomes the PC once eret is executed */
  8000ac:	df401217 	ldw	ea,72(sp)
        ldw   ra,   0(sp)
  8000b0:	dfc00017 	ldw	ra,0(sp)

        wrctl estatus, r5
  8000b4:	2801707a 	wrctl	estatus,r5

        ldw   r1,   8(sp)
  8000b8:	d8400217 	ldw	at,8(sp)
        ldw   r2,  12(sp)
  8000bc:	d8800317 	ldw	r2,12(sp)
        ldw   r3,  16(sp)
  8000c0:	d8c00417 	ldw	r3,16(sp)
        ldw   r4,  20(sp)
  8000c4:	d9000517 	ldw	r4,20(sp)
        ldw   r5,  24(sp)
  8000c8:	d9400617 	ldw	r5,24(sp)
        ldw   r6,  28(sp)
  8000cc:	d9800717 	ldw	r6,28(sp)
        ldw   r7,  32(sp)
  8000d0:	d9c00817 	ldw	r7,32(sp)

#if defined(ALT_EXCEPTION_STACK) && defined(ALT_STACK_CHECK)
        ldw   et, %gprel(alt_exception_old_stack_limit)(gp)
#endif

        ldw   r8,  36(sp)
  8000d4:	da000917 	ldw	r8,36(sp)
        ldw   r9,  40(sp)
  8000d8:	da400a17 	ldw	r9,40(sp)
        ldw   r10, 44(sp)
  8000dc:	da800b17 	ldw	r10,44(sp)
        ldw   r11, 48(sp)
  8000e0:	dac00c17 	ldw	r11,48(sp)
        ldw   r12, 52(sp)
  8000e4:	db000d17 	ldw	r12,52(sp)
        ldw   r13, 56(sp)
  8000e8:	db400e17 	ldw	r13,56(sp)
        ldw   r14, 60(sp)
  8000ec:	db800f17 	ldw	r14,60(sp)
        ldw   r15, 64(sp)
  8000f0:	dbc01017 	ldw	r15,64(sp)
        stw   et, %gprel(alt_stack_limit_value)(gp)
        stw   zero, %gprel(alt_exception_old_stack_limit)(gp)
#endif /* ALT_STACK_CHECK */
        ldw   sp,  76(sp)
#else /* ALT_EXCEPTION_STACK disabled */
        addi  sp, sp, 76
  8000f4:	dec01304 	addi	sp,sp,76

        /*
         * Return to the interrupted instruction.
         */

        eret
  8000f8:	ef80083a 	eret

008000fc <alt_irq_handler>:
 * instruction is present if the macro ALT_CI_INTERRUPT_VECTOR defined.
 */

void alt_irq_handler (void) __attribute__ ((section (".exceptions")));
void alt_irq_handler (void)
{
  8000fc:	defff904 	addi	sp,sp,-28
  800100:	dfc00615 	stw	ra,24(sp)
  800104:	df000515 	stw	fp,20(sp)
  800108:	df000504 	addi	fp,sp,20
  
  /*
   * Notify the operating system that we are at interrupt level.
   */ 
  
  ALT_OS_INT_ENTER();
  80010c:	0001883a 	nop
#ifndef NIOS2_EIC_PRESENT
static ALT_INLINE alt_u32 ALT_ALWAYS_INLINE alt_irq_pending (void)
{
  alt_u32 active;

  NIOS2_READ_IPENDING (active);
  800110:	0005313a 	rdctl	r2,ipending
  800114:	e0bffe15 	stw	r2,-8(fp)

  return active;
  800118:	e0bffe17 	ldw	r2,-8(fp)
   * Consider the case where the high priority interupt is asserted during
   * the interrupt entry sequence for a lower priority interrupt to see why
   * this is the case.
   */

  active = alt_irq_pending ();
  80011c:	e0bffb15 	stw	r2,-20(fp)

  do
  {
    i = 0;
  800120:	e03ffd15 	stw	zero,-12(fp)
    mask = 1;
  800124:	00800044 	movi	r2,1
  800128:	e0bffc15 	stw	r2,-16(fp)
     * called to clear the interrupt condition.
     */

    do
    {
      if (active & mask)
  80012c:	e0fffb17 	ldw	r3,-20(fp)
  800130:	e0bffc17 	ldw	r2,-16(fp)
  800134:	1884703a 	and	r2,r3,r2
  800138:	10001426 	beq	r2,zero,80018c <alt_irq_handler+0x90>
      { 
#ifdef ALT_ENHANCED_INTERRUPT_API_PRESENT
        alt_irq[i].handler(alt_irq[i].context); 
  80013c:	00802074 	movhi	r2,129
  800140:	10b7cb04 	addi	r2,r2,-8404
  800144:	e0fffd17 	ldw	r3,-12(fp)
  800148:	180690fa 	slli	r3,r3,3
  80014c:	10c5883a 	add	r2,r2,r3
  800150:	10c00017 	ldw	r3,0(r2)
  800154:	00802074 	movhi	r2,129
  800158:	10b7cb04 	addi	r2,r2,-8404
  80015c:	e13ffd17 	ldw	r4,-12(fp)
  800160:	200890fa 	slli	r4,r4,3
  800164:	1105883a 	add	r2,r2,r4
  800168:	10800104 	addi	r2,r2,4
  80016c:	10800017 	ldw	r2,0(r2)
  800170:	1009883a 	mov	r4,r2
  800174:	183ee83a 	callr	r3
#else
        alt_irq[i].handler(alt_irq[i].context, i); 
#endif
        break;
  800178:	0001883a 	nop
#ifndef NIOS2_EIC_PRESENT
static ALT_INLINE alt_u32 ALT_ALWAYS_INLINE alt_irq_pending (void)
{
  alt_u32 active;

  NIOS2_READ_IPENDING (active);
  80017c:	0005313a 	rdctl	r2,ipending
  800180:	e0bfff15 	stw	r2,-4(fp)

  return active;
  800184:	e0bfff17 	ldw	r2,-4(fp)
  800188:	00000706 	br	8001a8 <alt_irq_handler+0xac>
      }
      mask <<= 1;
  80018c:	e0bffc17 	ldw	r2,-16(fp)
  800190:	1085883a 	add	r2,r2,r2
  800194:	e0bffc15 	stw	r2,-16(fp)
      i++;
  800198:	e0bffd17 	ldw	r2,-12(fp)
  80019c:	10800044 	addi	r2,r2,1
  8001a0:	e0bffd15 	stw	r2,-12(fp)

    } while (1);
  8001a4:	003fe106 	br	80012c <__alt_mem_onchip_mem+0xff7f812c>

    active = alt_irq_pending ();
  8001a8:	e0bffb15 	stw	r2,-20(fp)
    
  } while (active);
  8001ac:	e0bffb17 	ldw	r2,-20(fp)
  8001b0:	103fdb1e 	bne	r2,zero,800120 <__alt_mem_onchip_mem+0xff7f8120>

  /*
   * Notify the operating system that interrupt processing is complete.
   */ 

  ALT_OS_INT_EXIT();
  8001b4:	0001883a 	nop
}
  8001b8:	0001883a 	nop
  8001bc:	e037883a 	mov	sp,fp
  8001c0:	dfc00117 	ldw	ra,4(sp)
  8001c4:	df000017 	ldw	fp,0(sp)
  8001c8:	dec00204 	addi	sp,sp,8
  8001cc:	f800283a 	ret

008001d0 <alt_instruction_exception_entry>:
 * that handler if it has been registered. Absent a handler, it will
 * break break or hang as discussed below.
 */
int 
alt_instruction_exception_entry (alt_u32 exception_pc)
{
  8001d0:	defffb04 	addi	sp,sp,-20
  8001d4:	dfc00415 	stw	ra,16(sp)
  8001d8:	df000315 	stw	fp,12(sp)
  8001dc:	df000304 	addi	fp,sp,12
  8001e0:	e13fff15 	stw	r4,-4(fp)
 * NIOS2_EXCEPTION_CAUSE_NOT_PRESENT. Your handling routine should
 * check the validity of the cause argument before proceeding.
 */
#ifdef NIOS2_HAS_EXTRA_EXCEPTION_INFO
  /* Get exception cause & "badaddr" */
  NIOS2_READ_EXCEPTION(cause);
  8001e4:	000531fa 	rdctl	r2,exception
  8001e8:	e0bffd15 	stw	r2,-12(fp)
  cause = ( (cause & NIOS2_EXCEPTION_REG_CAUSE_MASK) >>
  8001ec:	e0bffd17 	ldw	r2,-12(fp)
  8001f0:	10801f0c 	andi	r2,r2,124
  8001f4:	1004d0ba 	srli	r2,r2,2
  8001f8:	e0bffd15 	stw	r2,-12(fp)
              NIOS2_EXCEPTION_REG_CAUSE_OFST );

  NIOS2_READ_BADADDR(badaddr);
  8001fc:	0005333a 	rdctl	r2,badaddr
  800200:	e0bffe15 	stw	r2,-8(fp)
#else
  cause = NIOS2_EXCEPTION_CAUSE_NOT_PRESENT;
  badaddr = 0;
#endif /* NIOS2_HAS_EXTRA_EXCEPTION_INFO */

  if(alt_instruction_exception_handler) {
  800204:	d0a79817 	ldw	r2,-24992(gp)
  800208:	10000726 	beq	r2,zero,800228 <alt_instruction_exception_entry+0x58>
     * Call handler. Its return value indicates whether the exception-causing
     * instruction should be re-issued. The code that called us,
     * alt_eceptions_entry.S, will look at this value and adjust the ea
     * register as necessary
     */
    return alt_instruction_exception_handler(cause, exception_pc, badaddr);
  80020c:	d0a79817 	ldw	r2,-24992(gp)
  800210:	e0fffd17 	ldw	r3,-12(fp)
  800214:	e1bffe17 	ldw	r6,-8(fp)
  800218:	e17fff17 	ldw	r5,-4(fp)
  80021c:	1809883a 	mov	r4,r3
  800220:	103ee83a 	callr	r2
  800224:	00000206 	br	800230 <alt_instruction_exception_entry+0x60>
   *    (a peripheral which negates its interrupt output before its
   *    interrupt handler has been executed will cause spurious interrupts)
   */
  else {
#ifdef NIOS2_HAS_DEBUG_STUB
    NIOS2_BREAK();
  800228:	003da03a 	break	0
      ;
#endif /* NIOS2_HAS_DEBUG_STUB */
  }

  /* We should not get here. Remove compiler warning. */
  return NIOS2_EXCEPTION_RETURN_REISSUE_INST;
  80022c:	0005883a 	mov	r2,zero
}
  800230:	e037883a 	mov	sp,fp
  800234:	dfc00117 	ldw	ra,4(sp)
  800238:	df000017 	ldw	fp,0(sp)
  80023c:	dec00204 	addi	sp,sp,8
  800240:	f800283a 	ret

Disassembly of section .text:

00800244 <_start>:

    /* Assume the data cache size is always a power of two. */
#if NIOS2_DCACHE_SIZE > 0x8000
    movhi r2, %hi(NIOS2_DCACHE_SIZE)
#else
    movui r2, NIOS2_DCACHE_SIZE
  800244:	00820014 	movui	r2,2048
#endif

0:
    initd 0(r2)
  800248:	10000033 	initd	0(r2)
#ifdef NIOS2_ECC_PRESENT
    addi r2, r2, -4
#else
    addi r2, r2, -NIOS2_DCACHE_LINE_SIZE
  80024c:	10bff804 	addi	r2,r2,-32
#endif
    bgt r2, zero, 0b
  800250:	00bffd16 	blt	zero,r2,800248 <__alt_mem_onchip_mem+0xff7f8248>

    /*
     * Now that the caches are initialized, set up the stack pointer and global pointer.
     * The values provided by the linker are assumed to be correctly aligned.
     */
    movhi sp, %hi(__alt_stack_pointer)
  800254:	06c04034 	movhi	sp,256
    ori sp, sp, %lo(__alt_stack_pointer)
  800258:	dec00014 	ori	sp,sp,0
    movhi gp, %hi(_gp)
  80025c:	06802074 	movhi	gp,129
    ori gp, gp, %lo(_gp)
  800260:	d6901c14 	ori	gp,gp,16496
 */
#ifndef ALT_SIM_OPTIMIZE
    /* Log that the BSS is about to be cleared. */
    ALT_LOG_PUTS(alt_log_msg_bss)

    movhi r2, %hi(__bss_start)
  800264:	00802034 	movhi	r2,128
    ori r2, r2, %lo(__bss_start)
  800268:	10b74214 	ori	r2,r2,56584

    movhi r3, %hi(__bss_end)
  80026c:	00c02034 	movhi	r3,128
    ori r3, r3, %lo(__bss_end)
  800270:	18f80b14 	ori	r3,r3,57388

    beq r2, r3, 1f
  800274:	10c00326 	beq	r2,r3,800284 <_start+0x40>

0:
    stw zero, (r2)
  800278:	10000015 	stw	zero,0(r2)
    addi r2, r2, 4
  80027c:	10800104 	addi	r2,r2,4
    bltu r2, r3, 0b
  800280:	10fffd36 	bltu	r2,r3,800278 <__alt_mem_onchip_mem+0xff7f8278>
     * section aren't defined until alt_load() has been called).
     */
    mov   et, zero
#endif

    call alt_load
  800284:	08064fc0 	call	8064fc <alt_load>

    /* Log that alt_main is about to be called. */
    ALT_LOG_PUTS(alt_log_msg_alt_main)

    /* Call the C entry point. It should never return. */
    call alt_main
  800288:	08066900 	call	806690 <alt_main>

0080028c <alt_after_alt_main>:

    /* Wait in infinite loop in case alt_main does return. */
alt_after_alt_main:
    br alt_after_alt_main
  80028c:	003fff06 	br	80028c <__alt_mem_onchip_mem+0xff7f828c>

00800290 <timer_isr>:

void* timerContext;
alt_alarm timer, timer2;

//handler for the timer interrupt
alt_u32 timer_isr(void* context){
  800290:	defffd04 	addi	sp,sp,-12
  800294:	df000215 	stw	fp,8(sp)
  800298:	df000204 	addi	fp,sp,8
  80029c:	e13fff15 	stw	r4,-4(fp)
	int *timeCount = (int*) context;
  8002a0:	e0bfff17 	ldw	r2,-4(fp)
  8002a4:	e0bffe15 	stw	r2,-8(fp)
	(*timeCount)++;
  8002a8:	e0bffe17 	ldw	r2,-8(fp)
  8002ac:	10800017 	ldw	r2,0(r2)
  8002b0:	10c00044 	addi	r3,r2,1
  8002b4:	e0bffe17 	ldw	r2,-8(fp)
  8002b8:	10c00015 	stw	r3,0(r2)
	return 1;
  8002bc:	00800044 	movi	r2,1
}
  8002c0:	e037883a 	mov	sp,fp
  8002c4:	df000017 	ldw	fp,0(sp)
  8002c8:	dec00104 	addi	sp,sp,4
  8002cc:	f800283a 	ret

008002d0 <tx_char>:

void tx_char(char string) {
  8002d0:	defffe04 	addi	sp,sp,-8
  8002d4:	df000115 	stw	fp,4(sp)
  8002d8:	df000104 	addi	fp,sp,4
  8002dc:	2005883a 	mov	r2,r4
  8002e0:	e0bfff05 	stb	r2,-4(fp)
	IOWR_ALTERA_AVALON_UART_CONTROL(UART_BASE, IORD_ALTERA_AVALON_UART_CONTROL(UART_BASE) & ~0x0800);
  8002e4:	00804074 	movhi	r2,257
  8002e8:	10841304 	addi	r2,r2,4172
  8002ec:	10c00037 	ldwio	r3,0(r2)
  8002f0:	00bdffc4 	movi	r2,-2049
  8002f4:	1886703a 	and	r3,r3,r2
  8002f8:	00804074 	movhi	r2,257
  8002fc:	10841304 	addi	r2,r2,4172
  800300:	10c00035 	stwio	r3,0(r2)
	while((IORD_ALTERA_AVALON_UART_STATUS(UART_BASE) & 0x0800) != 0) {
  800304:	0001883a 	nop
  800308:	00804074 	movhi	r2,257
  80030c:	10841204 	addi	r2,r2,4168
  800310:	10800037 	ldwio	r2,0(r2)
  800314:	1082000c 	andi	r2,r2,2048
  800318:	103ffb1e 	bne	r2,zero,800308 <__alt_mem_onchip_mem+0xff7f8308>

	};
	while ((IORD_ALTERA_AVALON_UART_STATUS(UART_BASE) & 0x0040 == 0)) {
  80031c:	0001883a 	nop
  800320:	00804074 	movhi	r2,257
  800324:	10841204 	addi	r2,r2,4168
  800328:	10800037 	ldwio	r2,0(r2)

	};
	IOWR_ALTERA_AVALON_UART_TXDATA(UART_BASE, string);
  80032c:	e0ffff07 	ldb	r3,-4(fp)
  800330:	00804074 	movhi	r2,257
  800334:	10841104 	addi	r2,r2,4164
  800338:	10c00035 	stwio	r3,0(r2)
	IOWR_ALTERA_AVALON_UART_CONTROL(UART_BASE, IORD_ALTERA_AVALON_UART_CONTROL(UART_BASE) | 0x0800);
  80033c:	00804074 	movhi	r2,257
  800340:	10841304 	addi	r2,r2,4172
  800344:	10800037 	ldwio	r2,0(r2)
  800348:	10c20014 	ori	r3,r2,2048
  80034c:	00804074 	movhi	r2,257
  800350:	10841304 	addi	r2,r2,4172
  800354:	10c00035 	stwio	r3,0(r2)
}
  800358:	0001883a 	nop
  80035c:	e037883a 	mov	sp,fp
  800360:	df000017 	ldw	fp,0(sp)
  800364:	dec00104 	addi	sp,sp,4
  800368:	f800283a 	ret

0080036c <led_timer_isr>:

alt_u32 led_timer_isr(void* context){
  80036c:	defffd04 	addi	sp,sp,-12
  800370:	df000215 	stw	fp,8(sp)
  800374:	df000204 	addi	fp,sp,8
  800378:	e13fff15 	stw	r4,-4(fp)
	int *timeCount = (int*) context;
  80037c:	e0bfff17 	ldw	r2,-4(fp)
  800380:	e0bffe15 	stw	r2,-8(fp)
	(*timeCount)++;
  800384:	e0bffe17 	ldw	r2,-8(fp)
  800388:	10800017 	ldw	r2,0(r2)
  80038c:	10c00044 	addi	r3,r2,1
  800390:	e0bffe17 	ldw	r2,-8(fp)
  800394:	10c00015 	stw	r3,0(r2)
	return 1;
  800398:	00800044 	movi	r2,1
}
  80039c:	e037883a 	mov	sp,fp
  8003a0:	df000017 	ldw	fp,0(sp)
  8003a4:	dec00104 	addi	sp,sp,4
  8003a8:	f800283a 	ret

008003ac <main>:

int main()
{
  8003ac:	defffe04 	addi	sp,sp,-8
  8003b0:	dfc00115 	stw	ra,4(sp)
  8003b4:	df000015 	stw	fp,0(sp)
  8003b8:	d839883a 	mov	fp,sp
	reset();
  8003bc:	08006c80 	call	8006c8 <reset>



	to_avi = AVI_VALUE;
  8003c0:	00804b04 	movi	r2,300
  8003c4:	d0a78215 	stw	r2,-25080(gp)
	to_lri = LRI_VALUE;
  8003c8:	0080ed84 	movi	r2,950
  8003cc:	d0a73715 	stw	r2,-25380(gp)
	to_uri = URI_VALUE;
  8003d0:	0080e104 	movi	r2,900
  8003d4:	d0a74615 	stw	r2,-25320(gp)
	to_pvarp = PVARP_VALUE;
  8003d8:	00800c84 	movi	r2,50
  8003dc:	d0a76c15 	stw	r2,-25168(gp)
	to_vrp = VRP_VALUE;
  8003e0:	00802584 	movi	r2,150
  8003e4:	d0a78c15 	stw	r2,-25040(gp)
	to_aei = AEI_VALUE;
  8003e8:	0080c804 	movi	r2,800
  8003ec:	d0a76815 	stw	r2,-25184(gp)

	timeCount = 0;
  8003f0:	d0272e15 	stw	zero,-25416(gp)
	ledTimeCount = 0;
  8003f4:	d0272d15 	stw	zero,-25420(gp)
	timerContext = (void*) &timeCount;
  8003f8:	d0a72e04 	addi	r2,gp,-25416
  8003fc:	d0a73015 	stw	r2,-25408(gp)

	ap_count = 0;
  800400:	d0272a15 	stw	zero,-25432(gp)
	vp_count = 0;
  800404:	d0272f15 	stw	zero,-25412(gp)

	alt_alarm_start(&timer, 1, timer_isr, timerContext);
  800408:	d0a73017 	ldw	r2,-25408(gp)
  80040c:	100f883a 	mov	r7,r2
  800410:	01802034 	movhi	r6,128
  800414:	3180a404 	addi	r6,r6,656
  800418:	01400044 	movi	r5,1
  80041c:	01002074 	movhi	r4,129
  800420:	2137bf04 	addi	r4,r4,-8452
  800424:	08060640 	call	806064 <alt_alarm_start>

	while(1) {

		VLED1 = 0;
  800428:	d0272615 	stw	zero,-25448(gp)
		tx_char('V');
  80042c:	01001584 	movi	r4,86
  800430:	08002d00 	call	8002d0 <tx_char>
		buttonValuePrevious = buttonValue;
  800434:	d0a72b17 	ldw	r2,-25428(gp)
  800438:	d0a72c15 	stw	r2,-25424(gp)
		buttonValue = IORD_ALTERA_AVALON_PIO_DATA(KEYS_BASE);
  80043c:	00804074 	movhi	r2,257
  800440:	10842404 	addi	r2,r2,4240
  800444:	10800037 	ldwio	r2,0(r2)
  800448:	d0a72b15 	stw	r2,-25428(gp)

		//if (buttonValuePrevious != buttonValue) {
			// Key 1 is pressed
			if(buttonValue == 6){
  80044c:	d0a72b17 	ldw	r2,-25428(gp)
  800450:	10800198 	cmpnei	r2,r2,6
  800454:	1000091e 	bne	r2,zero,80047c <main+0xd0>
				as = 1;
  800458:	00800044 	movi	r2,1
  80045c:	d0a76305 	stb	r2,-25204(gp)
				VLED1 = VLED1 + LED0;
  800460:	d0a72617 	ldw	r2,-25448(gp)
  800464:	10800044 	addi	r2,r2,1
  800468:	d0a72615 	stw	r2,-25448(gp)
				printf("as\n");
  80046c:	01002074 	movhi	r4,129
  800470:	21286104 	addi	r4,r4,-24188
  800474:	080335c0 	call	80335c <puts>
  800478:	00000106 	br	800480 <main+0xd4>
			}else{
				as = 0;
  80047c:	d0276305 	stb	zero,-25204(gp)
			}

			//Key 2 is pressed
			if(buttonValue == 5){
  800480:	d0a72b17 	ldw	r2,-25428(gp)
  800484:	10800158 	cmpnei	r2,r2,5
  800488:	1000091e 	bne	r2,zero,8004b0 <main+0x104>
				vs = 1;
  80048c:	00800044 	movi	r2,1
  800490:	d0a76f05 	stb	r2,-25156(gp)
				VLED1 = VLED1 + LED1;
  800494:	d0a72617 	ldw	r2,-25448(gp)
  800498:	10800084 	addi	r2,r2,2
  80049c:	d0a72615 	stw	r2,-25448(gp)
				printf("vs\n");
  8004a0:	01002074 	movhi	r4,129
  8004a4:	21286204 	addi	r4,r4,-24184
  8004a8:	080335c0 	call	80335c <puts>
  8004ac:	00000106 	br	8004b4 <main+0x108>
			}else{
				vs = 0;
  8004b0:	d0276f05 	stb	zero,-25156(gp)
			}
		//}

		// Every millisecond do this.
		if(timeCount >= 1){
  8004b4:	d0a72e17 	ldw	r2,-25416(gp)
  8004b8:	0080600e 	bge	zero,r2,80063c <main+0x290>

			alt_alarm_stop(&timer);
  8004bc:	01002074 	movhi	r4,129
  8004c0:	2137bf04 	addi	r4,r4,-8452
  8004c4:	08069a00 	call	8069a0 <alt_alarm_stop>
			timeCount = 0;
  8004c8:	d0272e15 	stw	zero,-25416(gp)
			VLED2 = 0;
  8004cc:	d0272715 	stw	zero,-25444(gp)

			tick();
  8004d0:	08007780 	call	800778 <tick>

			if(ap_count > 0){
  8004d4:	d0a72a17 	ldw	r2,-25432(gp)
  8004d8:	0080030e 	bge	zero,r2,8004e8 <main+0x13c>
				ap_count--;
  8004dc:	d0a72a17 	ldw	r2,-25432(gp)
  8004e0:	10bfffc4 	addi	r2,r2,-1
  8004e4:	d0a72a15 	stw	r2,-25432(gp)
			}

			if(vp_count > 0){
  8004e8:	d0a72f17 	ldw	r2,-25412(gp)
  8004ec:	0080030e 	bge	zero,r2,8004fc <main+0x150>
				vp_count--;
  8004f0:	d0a72f17 	ldw	r2,-25412(gp)
  8004f4:	10bfffc4 	addi	r2,r2,-1
  8004f8:	d0a72f15 	stw	r2,-25412(gp)
			}

			//Turns off VS & AS
			if (as == 1 || vs == 1){
  8004fc:	d0a76303 	ldbu	r2,-25204(gp)
  800500:	10803fcc 	andi	r2,r2,255
  800504:	1080201c 	xori	r2,r2,128
  800508:	10bfe004 	addi	r2,r2,-128
  80050c:	10800060 	cmpeqi	r2,r2,1
  800510:	1000061e 	bne	r2,zero,80052c <main+0x180>
  800514:	d0a76f03 	ldbu	r2,-25156(gp)
  800518:	10803fcc 	andi	r2,r2,255
  80051c:	1080201c 	xori	r2,r2,128
  800520:	10bfe004 	addi	r2,r2,-128
  800524:	10800058 	cmpnei	r2,r2,1
  800528:	1000021e 	bne	r2,zero,800534 <main+0x188>
				as = 0;
  80052c:	d0276305 	stb	zero,-25204(gp)
				vs = 0;
  800530:	d0276f05 	stb	zero,-25156(gp)
			}

			// Debug RED LEDS.
			if(AVI == 1){
  800534:	d0a75983 	ldbu	r2,-25242(gp)
  800538:	10803fcc 	andi	r2,r2,255
  80053c:	1080201c 	xori	r2,r2,128
  800540:	10bfe004 	addi	r2,r2,-128
  800544:	10800058 	cmpnei	r2,r2,1
  800548:	1000031e 	bne	r2,zero,800558 <main+0x1ac>
				VLED2 = VLED2 + LED0;
  80054c:	d0a72717 	ldw	r2,-25444(gp)
  800550:	10800044 	addi	r2,r2,1
  800554:	d0a72715 	stw	r2,-25444(gp)
			}
			if(VRP == 1){
  800558:	d0a76d43 	ldbu	r2,-25163(gp)
  80055c:	10803fcc 	andi	r2,r2,255
  800560:	1080201c 	xori	r2,r2,128
  800564:	10bfe004 	addi	r2,r2,-128
  800568:	10800058 	cmpnei	r2,r2,1
  80056c:	1000031e 	bne	r2,zero,80057c <main+0x1d0>
				VLED2 = VLED2 + LED1;
  800570:	d0a72717 	ldw	r2,-25444(gp)
  800574:	10800084 	addi	r2,r2,2
  800578:	d0a72715 	stw	r2,-25444(gp)
			}
			if(PVARP == 1){
  80057c:	d0a780c3 	ldbu	r2,-25085(gp)
  800580:	10803fcc 	andi	r2,r2,255
  800584:	1080201c 	xori	r2,r2,128
  800588:	10bfe004 	addi	r2,r2,-128
  80058c:	10800058 	cmpnei	r2,r2,1
  800590:	1000031e 	bne	r2,zero,8005a0 <main+0x1f4>
				VLED2 = VLED2 + LED2;
  800594:	d0a72717 	ldw	r2,-25444(gp)
  800598:	10800104 	addi	r2,r2,4
  80059c:	d0a72715 	stw	r2,-25444(gp)
			}
			if(AEI == 1){
  8005a0:	d0a76983 	ldbu	r2,-25178(gp)
  8005a4:	10803fcc 	andi	r2,r2,255
  8005a8:	1080201c 	xori	r2,r2,128
  8005ac:	10bfe004 	addi	r2,r2,-128
  8005b0:	10800058 	cmpnei	r2,r2,1
  8005b4:	1000031e 	bne	r2,zero,8005c4 <main+0x218>
				VLED2 = VLED2 + LED3;
  8005b8:	d0a72717 	ldw	r2,-25444(gp)
  8005bc:	10800204 	addi	r2,r2,8
  8005c0:	d0a72715 	stw	r2,-25444(gp)
			}
			if(URI == 1){
  8005c4:	d0a75383 	ldbu	r2,-25266(gp)
  8005c8:	10803fcc 	andi	r2,r2,255
  8005cc:	1080201c 	xori	r2,r2,128
  8005d0:	10bfe004 	addi	r2,r2,-128
  8005d4:	10800058 	cmpnei	r2,r2,1
  8005d8:	1000031e 	bne	r2,zero,8005e8 <main+0x23c>
				VLED2 = VLED2 + LED4;
  8005dc:	d0a72717 	ldw	r2,-25444(gp)
  8005e0:	10800404 	addi	r2,r2,16
  8005e4:	d0a72715 	stw	r2,-25444(gp)
			}
			if(LRI == 1){
  8005e8:	d0a74343 	ldbu	r2,-25331(gp)
  8005ec:	10803fcc 	andi	r2,r2,255
  8005f0:	1080201c 	xori	r2,r2,128
  8005f4:	10bfe004 	addi	r2,r2,-128
  8005f8:	10800058 	cmpnei	r2,r2,1
  8005fc:	1000031e 	bne	r2,zero,80060c <main+0x260>
				VLED2 = VLED2 + LED5;
  800600:	d0a72717 	ldw	r2,-25444(gp)
  800604:	10800804 	addi	r2,r2,32
  800608:	d0a72715 	stw	r2,-25444(gp)
			}

			IOWR_ALTERA_AVALON_PIO_DATA(LEDS_RED_BASE, VLED2);
  80060c:	d0e72717 	ldw	r3,-25444(gp)
  800610:	00804074 	movhi	r2,257
  800614:	10841c04 	addi	r2,r2,4208
  800618:	10c00035 	stwio	r3,0(r2)

			alt_alarm_start(&timer, 1, timer_isr, timerContext);
  80061c:	d0a73017 	ldw	r2,-25408(gp)
  800620:	100f883a 	mov	r7,r2
  800624:	01802034 	movhi	r6,128
  800628:	3180a404 	addi	r6,r6,656
  80062c:	01400044 	movi	r5,1
  800630:	01002074 	movhi	r4,129
  800634:	2137bf04 	addi	r4,r4,-8452
  800638:	08060640 	call	806064 <alt_alarm_start>
		}
		if(ap == 1 && ap_count == 0){
  80063c:	d0a74cc3 	ldbu	r2,-25293(gp)
  800640:	10803fcc 	andi	r2,r2,255
  800644:	1080201c 	xori	r2,r2,128
  800648:	10bfe004 	addi	r2,r2,-128
  80064c:	10800058 	cmpnei	r2,r2,1
  800650:	1000041e 	bne	r2,zero,800664 <main+0x2b8>
  800654:	d0a72a17 	ldw	r2,-25432(gp)
  800658:	1000021e 	bne	r2,zero,800664 <main+0x2b8>
			ap_count = 20;
  80065c:	00800504 	movi	r2,20
  800660:	d0a72a15 	stw	r2,-25432(gp)
		}

		if(vp == 1 && vp_count == 0){
  800664:	d0a76f43 	ldbu	r2,-25155(gp)
  800668:	10803fcc 	andi	r2,r2,255
  80066c:	1080201c 	xori	r2,r2,128
  800670:	10bfe004 	addi	r2,r2,-128
  800674:	10800058 	cmpnei	r2,r2,1
  800678:	1000041e 	bne	r2,zero,80068c <main+0x2e0>
  80067c:	d0a72f17 	ldw	r2,-25412(gp)
  800680:	1000021e 	bne	r2,zero,80068c <main+0x2e0>
			vp_count = 20;
  800684:	00800504 	movi	r2,20
  800688:	d0a72f15 	stw	r2,-25412(gp)
		}

		if(ap_count > 0 ){
  80068c:	d0a72a17 	ldw	r2,-25432(gp)
  800690:	0080030e 	bge	zero,r2,8006a0 <main+0x2f4>
			VLED1 = VLED1 + LED6;
  800694:	d0a72617 	ldw	r2,-25448(gp)
  800698:	10801004 	addi	r2,r2,64
  80069c:	d0a72615 	stw	r2,-25448(gp)
		}
		if(vp_count > 0){
  8006a0:	d0a72f17 	ldw	r2,-25412(gp)
  8006a4:	0080030e 	bge	zero,r2,8006b4 <main+0x308>
			VLED1 = VLED1 + LED7;
  8006a8:	d0a72617 	ldw	r2,-25448(gp)
  8006ac:	10802004 	addi	r2,r2,128
  8006b0:	d0a72615 	stw	r2,-25448(gp)
		}
		IOWR_ALTERA_AVALON_PIO_DATA(LEDS_GREEN_BASE, VLED1);
  8006b4:	d0e72617 	ldw	r3,-25448(gp)
  8006b8:	00804074 	movhi	r2,257
  8006bc:	10842004 	addi	r2,r2,4224
  8006c0:	10c00035 	stwio	r3,0(r2)
	}
  8006c4:	003f5806 	br	800428 <__alt_mem_onchip_mem+0xff7f8428>

008006c8 <reset>:
char g88_e5;
char g113_e6;
char g139_e7;
char g159_e8;
int _PRE_GO;
void reset(){
  8006c8:	deffff04 	addi	sp,sp,-4
  8006cc:	df000015 	stw	fp,0(sp)
  8006d0:	d839883a 	mov	fp,sp
   _GO = 1;
  8006d4:	00800044 	movi	r2,1
  8006d8:	d0a76685 	stb	r2,-25190(gp)
   _PRE_GO = 0;
  8006dc:	d0273c15 	stw	zero,-25360(gp)
   PRE_g3 = 0;
  8006e0:	d0273d05 	stb	zero,-25356(gp)
   PRE_g6 = 0;
  8006e4:	d0276245 	stb	zero,-25207(gp)
   PRE_g10 = 0;
  8006e8:	d0274dc5 	stb	zero,-25289(gp)
   PRE_g15 = 0;
  8006ec:	d0277bc5 	stb	zero,-25105(gp)
   PRE_g18 = 0;
  8006f0:	d0276205 	stb	zero,-25208(gp)
   PRE_g22 = 0;
  8006f4:	d0276385 	stb	zero,-25202(gp)
   PRE_g30 = 0;
  8006f8:	d0278485 	stb	zero,-25070(gp)
   PRE_g33 = 0;
  8006fc:	d0277985 	stb	zero,-25114(gp)
   PRE_g37 = 0;
  800700:	d0278ac5 	stb	zero,-25045(gp)
   PRE_g40 = 0;
  800704:	d0274ac5 	stb	zero,-25301(gp)
   PRE_g49 = 0;
  800708:	d0274b05 	stb	zero,-25300(gp)
   PRE_g52 = 0;
  80070c:	d0276145 	stb	zero,-25211(gp)
   PRE_g59 = 0;
  800710:	d0277f85 	stb	zero,-25090(gp)
   PRE_g61 = 0;
  800714:	d0277445 	stb	zero,-25135(gp)
   PRE_g64 = 0;
  800718:	d0278445 	stb	zero,-25071(gp)
   PRE_g74 = 0;
  80071c:	d0277185 	stb	zero,-25146(gp)
   PRE_g77 = 0;
  800720:	d0274805 	stb	zero,-25312(gp)
   PRE_g81 = 0;
  800724:	d0274d05 	stb	zero,-25292(gp)
   PRE_g84 = 0;
  800728:	d0275f45 	stb	zero,-25219(gp)
   PRE_g94 = 0;
  80072c:	d0274c05 	stb	zero,-25296(gp)
   PRE_g97 = 0;
  800730:	d0276a85 	stb	zero,-25174(gp)
   PRE_g101 = 0;
  800734:	d02758c5 	stb	zero,-25245(gp)
   PRE_g104 = 0;
  800738:	d0274d85 	stb	zero,-25290(gp)
   PRE_g110 = 0;
  80073c:	d02779c5 	stb	zero,-25113(gp)
   PRE_g115 = 0;
  800740:	d02775c5 	stb	zero,-25129(gp)
   PRE_g117 = 0;
  800744:	d0278945 	stb	zero,-25051(gp)
   PRE_g120 = 0;
  800748:	d0277b05 	stb	zero,-25108(gp)
   PRE_g132 = 0;
  80074c:	d0278885 	stb	zero,-25054(gp)
   PRE_g135 = 0;
  800750:	d0278845 	stb	zero,-25055(gp)
   PRE_g145 = 0;
  800754:	d02770c5 	stb	zero,-25149(gp)
   PRE_g148 = 0;
  800758:	d0275f85 	stb	zero,-25218(gp)
   PRE_g152 = 0;
  80075c:	d0278085 	stb	zero,-25086(gp)
   PRE_g155 = 0;
  800760:	d0277e85 	stb	zero,-25094(gp)
   return;
  800764:	0001883a 	nop
}
  800768:	e037883a 	mov	sp,fp
  80076c:	df000017 	ldw	fp,0(sp)
  800770:	dec00104 	addi	sp,sp,4
  800774:	f800283a 	ret

00800778 <tick>:
void tick(){
  800778:	deffff04 	addi	sp,sp,-4
  80077c:	df000015 	stw	fp,0(sp)
  800780:	d839883a 	mov	fp,sp
   if(_PRE_GO == 1){
  800784:	d0a73c17 	ldw	r2,-25360(gp)
  800788:	10800058 	cmpnei	r2,r2,1
  80078c:	1000011e 	bne	r2,zero,800794 <tick+0x1c>
      _GO = 0;
  800790:	d0276685 	stb	zero,-25190(gp)
   }
   {
      g0 = _GO;
  800794:	d0a76683 	ldbu	r2,-25190(gp)
  800798:	d0a77ac5 	stb	r2,-25109(gp)
      g1 = g0;
  80079c:	d0a77ac3 	ldbu	r2,-25109(gp)
  8007a0:	d0a74205 	stb	r2,-25336(gp)
      g7 =(PRE_g6);
  8007a4:	d0a76243 	ldbu	r2,-25207(gp)
  8007a8:	d0a75805 	stb	r2,-25248(gp)
      _cg7 = 1;
  8007ac:	00800044 	movi	r2,1
  8007b0:	d0a73b85 	stb	r2,-25362(gp)
      g11 =(PRE_g10);
  8007b4:	d0a74dc3 	ldbu	r2,-25289(gp)
  8007b8:	d0a77d85 	stb	r2,-25098(gp)
      _cg11 = 1;
  8007bc:	00800044 	movi	r2,1
  8007c0:	d0a76d85 	stb	r2,-25162(gp)
      g2 =(g1||(g7&&_cg7)||(g11&&_cg11));
  8007c4:	d0a74203 	ldbu	r2,-25336(gp)
  8007c8:	10803fcc 	andi	r2,r2,255
  8007cc:	1080201c 	xori	r2,r2,128
  8007d0:	10bfe004 	addi	r2,r2,-128
  8007d4:	1000141e 	bne	r2,zero,800828 <tick+0xb0>
  8007d8:	d0a75803 	ldbu	r2,-25248(gp)
  8007dc:	10803fcc 	andi	r2,r2,255
  8007e0:	1080201c 	xori	r2,r2,128
  8007e4:	10bfe004 	addi	r2,r2,-128
  8007e8:	10000526 	beq	r2,zero,800800 <tick+0x88>
  8007ec:	d0a73b83 	ldbu	r2,-25362(gp)
  8007f0:	10803fcc 	andi	r2,r2,255
  8007f4:	1080201c 	xori	r2,r2,128
  8007f8:	10bfe004 	addi	r2,r2,-128
  8007fc:	10000a1e 	bne	r2,zero,800828 <tick+0xb0>
  800800:	d0a77d83 	ldbu	r2,-25098(gp)
  800804:	10803fcc 	andi	r2,r2,255
  800808:	1080201c 	xori	r2,r2,128
  80080c:	10bfe004 	addi	r2,r2,-128
  800810:	10000726 	beq	r2,zero,800830 <tick+0xb8>
  800814:	d0a76d83 	ldbu	r2,-25162(gp)
  800818:	10803fcc 	andi	r2,r2,255
  80081c:	1080201c 	xori	r2,r2,128
  800820:	10bfe004 	addi	r2,r2,-128
  800824:	10000226 	beq	r2,zero,800830 <tick+0xb8>
  800828:	00800044 	movi	r2,1
  80082c:	00000106 	br	800834 <tick+0xbc>
  800830:	0005883a 	mov	r2,zero
  800834:	d0a757c5 	stb	r2,-25249(gp)
      if(g2){
  800838:	d0a757c3 	ldbu	r2,-25249(gp)
  80083c:	10803fcc 	andi	r2,r2,255
  800840:	1080201c 	xori	r2,r2,128
  800844:	10bfe004 	addi	r2,r2,-128
  800848:	10000326 	beq	r2,zero,800858 <tick+0xe0>
         ap = 0;
  80084c:	d0274cc5 	stb	zero,-25293(gp)
         as_accept = 0;
  800850:	d0278a45 	stb	zero,-25047(gp)
         ap_accept = 0;
  800854:	d0277485 	stb	zero,-25134(gp)
      }
      g13 = g0;
  800858:	d0a77ac3 	ldbu	r2,-25109(gp)
  80085c:	d0a77585 	stb	r2,-25130(gp)
      g19 =(PRE_g18);
  800860:	d0a76203 	ldbu	r2,-25208(gp)
  800864:	d0a73305 	stb	r2,-25396(gp)
      _cg19 = 1;
  800868:	00800044 	movi	r2,1
  80086c:	d0a77885 	stb	r2,-25118(gp)
      g23 =(PRE_g22);
  800870:	d0a76383 	ldbu	r2,-25202(gp)
  800874:	d0a75c45 	stb	r2,-25231(gp)
      _cg23 = 1;
  800878:	00800044 	movi	r2,1
  80087c:	d0a78385 	stb	r2,-25074(gp)
      g14 =(g13||(g19&&_cg19)||(g23&&_cg23));
  800880:	d0a77583 	ldbu	r2,-25130(gp)
  800884:	10803fcc 	andi	r2,r2,255
  800888:	1080201c 	xori	r2,r2,128
  80088c:	10bfe004 	addi	r2,r2,-128
  800890:	1000141e 	bne	r2,zero,8008e4 <tick+0x16c>
  800894:	d0a73303 	ldbu	r2,-25396(gp)
  800898:	10803fcc 	andi	r2,r2,255
  80089c:	1080201c 	xori	r2,r2,128
  8008a0:	10bfe004 	addi	r2,r2,-128
  8008a4:	10000526 	beq	r2,zero,8008bc <tick+0x144>
  8008a8:	d0a77883 	ldbu	r2,-25118(gp)
  8008ac:	10803fcc 	andi	r2,r2,255
  8008b0:	1080201c 	xori	r2,r2,128
  8008b4:	10bfe004 	addi	r2,r2,-128
  8008b8:	10000a1e 	bne	r2,zero,8008e4 <tick+0x16c>
  8008bc:	d0a75c43 	ldbu	r2,-25231(gp)
  8008c0:	10803fcc 	andi	r2,r2,255
  8008c4:	1080201c 	xori	r2,r2,128
  8008c8:	10bfe004 	addi	r2,r2,-128
  8008cc:	10000726 	beq	r2,zero,8008ec <tick+0x174>
  8008d0:	d0a78383 	ldbu	r2,-25074(gp)
  8008d4:	10803fcc 	andi	r2,r2,255
  8008d8:	1080201c 	xori	r2,r2,128
  8008dc:	10bfe004 	addi	r2,r2,-128
  8008e0:	10000226 	beq	r2,zero,8008ec <tick+0x174>
  8008e4:	00800044 	movi	r2,1
  8008e8:	00000106 	br	8008f0 <tick+0x178>
  8008ec:	0005883a 	mov	r2,zero
  8008f0:	d0a75f05 	stb	r2,-25220(gp)
      if(g14){
  8008f4:	d0a75f03 	ldbu	r2,-25220(gp)
  8008f8:	10803fcc 	andi	r2,r2,255
  8008fc:	1080201c 	xori	r2,r2,128
  800900:	10bfe004 	addi	r2,r2,-128
  800904:	10000326 	beq	r2,zero,800914 <tick+0x19c>
         vp = 0;
  800908:	d0276f45 	stb	zero,-25155(gp)
         vp_accept = 0;
  80090c:	d0275a45 	stb	zero,-25239(gp)
         vs_accept = 0;
  800910:	d02769c5 	stb	zero,-25177(gp)
      }
      g75 =(PRE_g74);
  800914:	d0a77183 	ldbu	r2,-25146(gp)
  800918:	d0a77b45 	stb	r2,-25107(gp)
      if(g75){
  80091c:	d0a77b43 	ldbu	r2,-25107(gp)
  800920:	10803fcc 	andi	r2,r2,255
  800924:	1080201c 	xori	r2,r2,128
  800928:	10bfe004 	addi	r2,r2,-128
  80092c:	10000126 	beq	r2,zero,800934 <tick+0x1bc>
         VRP = 0;
  800930:	d0276d45 	stb	zero,-25163(gp)
      }
      g82 =(PRE_g81);
  800934:	d0a74d03 	ldbu	r2,-25292(gp)
  800938:	d0a74445 	stb	r2,-25327(gp)
      _cg82 = 1;
  80093c:	00800044 	movi	r2,1
  800940:	d0a75205 	stb	r2,-25272(gp)
      g85 =(PRE_g84);
  800944:	d0a75f43 	ldbu	r2,-25219(gp)
  800948:	d0a739c5 	stb	r2,-25369(gp)
      _cg85 =(t_vrp < (to_vrp - 2));
  80094c:	d0a78c17 	ldw	r2,-25040(gp)
  800950:	10bfff84 	addi	r2,r2,-2
  800954:	d0e74f17 	ldw	r3,-25284(gp)
  800958:	1884803a 	cmplt	r2,r3,r2
  80095c:	d0a74785 	stb	r2,-25314(gp)
      g86 =(g85&&_cg85);
  800960:	d0a739c3 	ldbu	r2,-25369(gp)
  800964:	10803fcc 	andi	r2,r2,255
  800968:	1080201c 	xori	r2,r2,128
  80096c:	10bfe004 	addi	r2,r2,-128
  800970:	10000726 	beq	r2,zero,800990 <tick+0x218>
  800974:	d0a74783 	ldbu	r2,-25314(gp)
  800978:	10803fcc 	andi	r2,r2,255
  80097c:	1080201c 	xori	r2,r2,128
  800980:	10bfe004 	addi	r2,r2,-128
  800984:	10000226 	beq	r2,zero,800990 <tick+0x218>
  800988:	00800044 	movi	r2,1
  80098c:	00000106 	br	800994 <tick+0x21c>
  800990:	0005883a 	mov	r2,zero
  800994:	d0a76b05 	stb	r2,-25172(gp)
      if(g86){
  800998:	d0a76b03 	ldbu	r2,-25172(gp)
  80099c:	10803fcc 	andi	r2,r2,255
  8009a0:	1080201c 	xori	r2,r2,128
  8009a4:	10bfe004 	addi	r2,r2,-128
  8009a8:	10000326 	beq	r2,zero,8009b8 <tick+0x240>
         t_vrp++;
  8009ac:	d0a74f17 	ldw	r2,-25284(gp)
  8009b0:	10800044 	addi	r2,r2,1
  8009b4:	d0a74f15 	stw	r2,-25284(gp)
      }
      g83 =((g82&&_cg82)||g86);
  8009b8:	d0a74443 	ldbu	r2,-25327(gp)
  8009bc:	10803fcc 	andi	r2,r2,255
  8009c0:	1080201c 	xori	r2,r2,128
  8009c4:	10bfe004 	addi	r2,r2,-128
  8009c8:	10000526 	beq	r2,zero,8009e0 <tick+0x268>
  8009cc:	d0a75203 	ldbu	r2,-25272(gp)
  8009d0:	10803fcc 	andi	r2,r2,255
  8009d4:	1080201c 	xori	r2,r2,128
  8009d8:	10bfe004 	addi	r2,r2,-128
  8009dc:	1000051e 	bne	r2,zero,8009f4 <tick+0x27c>
  8009e0:	d0a76b03 	ldbu	r2,-25172(gp)
  8009e4:	10803fcc 	andi	r2,r2,255
  8009e8:	1080201c 	xori	r2,r2,128
  8009ec:	10bfe004 	addi	r2,r2,-128
  8009f0:	10000226 	beq	r2,zero,8009fc <tick+0x284>
  8009f4:	00800044 	movi	r2,1
  8009f8:	00000106 	br	800a00 <tick+0x288>
  8009fc:	0005883a 	mov	r2,zero
  800a00:	d0a73145 	stb	r2,-25403(gp)
      if(g83){
  800a04:	d0a73143 	ldbu	r2,-25403(gp)
  800a08:	10803fcc 	andi	r2,r2,255
  800a0c:	1080201c 	xori	r2,r2,128
  800a10:	10bfe004 	addi	r2,r2,-128
  800a14:	10000226 	beq	r2,zero,800a20 <tick+0x2a8>
         VRP = 1;
  800a18:	00800044 	movi	r2,1
  800a1c:	d0a76d45 	stb	r2,-25163(gp)
      }
      g146 =(PRE_g145);
  800a20:	d0a770c3 	ldbu	r2,-25149(gp)
  800a24:	d0a73905 	stb	r2,-25372(gp)
      if(g146){
  800a28:	d0a73903 	ldbu	r2,-25372(gp)
  800a2c:	10803fcc 	andi	r2,r2,255
  800a30:	1080201c 	xori	r2,r2,128
  800a34:	10bfe004 	addi	r2,r2,-128
  800a38:	10000126 	beq	r2,zero,800a40 <tick+0x2c8>
         URI = 0;
  800a3c:	d0275385 	stb	zero,-25266(gp)
      }
      g153 =(PRE_g152);
  800a40:	d0a78083 	ldbu	r2,-25086(gp)
  800a44:	d0a73805 	stb	r2,-25376(gp)
      _cg153 = 1;
  800a48:	00800044 	movi	r2,1
  800a4c:	d0a74305 	stb	r2,-25332(gp)
      g156 =(PRE_g155);
  800a50:	d0a77e83 	ldbu	r2,-25094(gp)
  800a54:	d0a73e05 	stb	r2,-25352(gp)
      _cg156 =(t_uri < (to_uri - 2));
  800a58:	d0a74617 	ldw	r2,-25320(gp)
  800a5c:	10bfff84 	addi	r2,r2,-2
  800a60:	d0e75e17 	ldw	r3,-25224(gp)
  800a64:	1884803a 	cmplt	r2,r3,r2
  800a68:	d0a78005 	stb	r2,-25088(gp)
      g157 =(g156&&_cg156);
  800a6c:	d0a73e03 	ldbu	r2,-25352(gp)
  800a70:	10803fcc 	andi	r2,r2,255
  800a74:	1080201c 	xori	r2,r2,128
  800a78:	10bfe004 	addi	r2,r2,-128
  800a7c:	10000726 	beq	r2,zero,800a9c <tick+0x324>
  800a80:	d0a78003 	ldbu	r2,-25088(gp)
  800a84:	10803fcc 	andi	r2,r2,255
  800a88:	1080201c 	xori	r2,r2,128
  800a8c:	10bfe004 	addi	r2,r2,-128
  800a90:	10000226 	beq	r2,zero,800a9c <tick+0x324>
  800a94:	00800044 	movi	r2,1
  800a98:	00000106 	br	800aa0 <tick+0x328>
  800a9c:	0005883a 	mov	r2,zero
  800aa0:	d0a777c5 	stb	r2,-25121(gp)
      if(g157){
  800aa4:	d0a777c3 	ldbu	r2,-25121(gp)
  800aa8:	10803fcc 	andi	r2,r2,255
  800aac:	1080201c 	xori	r2,r2,128
  800ab0:	10bfe004 	addi	r2,r2,-128
  800ab4:	10000326 	beq	r2,zero,800ac4 <tick+0x34c>
         t_uri++;
  800ab8:	d0a75e17 	ldw	r2,-25224(gp)
  800abc:	10800044 	addi	r2,r2,1
  800ac0:	d0a75e15 	stw	r2,-25224(gp)
      }
      g154 =((g153&&_cg153)||g157);
  800ac4:	d0a73803 	ldbu	r2,-25376(gp)
  800ac8:	10803fcc 	andi	r2,r2,255
  800acc:	1080201c 	xori	r2,r2,128
  800ad0:	10bfe004 	addi	r2,r2,-128
  800ad4:	10000526 	beq	r2,zero,800aec <tick+0x374>
  800ad8:	d0a74303 	ldbu	r2,-25332(gp)
  800adc:	10803fcc 	andi	r2,r2,255
  800ae0:	1080201c 	xori	r2,r2,128
  800ae4:	10bfe004 	addi	r2,r2,-128
  800ae8:	1000051e 	bne	r2,zero,800b00 <tick+0x388>
  800aec:	d0a777c3 	ldbu	r2,-25121(gp)
  800af0:	10803fcc 	andi	r2,r2,255
  800af4:	1080201c 	xori	r2,r2,128
  800af8:	10bfe004 	addi	r2,r2,-128
  800afc:	10000226 	beq	r2,zero,800b08 <tick+0x390>
  800b00:	00800044 	movi	r2,1
  800b04:	00000106 	br	800b0c <tick+0x394>
  800b08:	0005883a 	mov	r2,zero
  800b0c:	d0a771c5 	stb	r2,-25145(gp)
      if(g154){
  800b10:	d0a771c3 	ldbu	r2,-25145(gp)
  800b14:	10803fcc 	andi	r2,r2,255
  800b18:	1080201c 	xori	r2,r2,128
  800b1c:	10bfe004 	addi	r2,r2,-128
  800b20:	10000226 	beq	r2,zero,800b2c <tick+0x3b4>
         URI = 1;
  800b24:	00800044 	movi	r2,1
  800b28:	d0a75385 	stb	r2,-25266(gp)
      }
      g16 =(PRE_g15);
  800b2c:	d0a77bc3 	ldbu	r2,-25105(gp)
  800b30:	d0a77c05 	stb	r2,-25104(gp)
      g16b = g16;
  800b34:	d0a77c03 	ldbu	r2,-25104(gp)
  800b38:	d0a77fc5 	stb	r2,-25089(gp)
      _cg16 =((!(VRP))&vs&(!(URI)));
  800b3c:	d0a76d43 	ldbu	r2,-25163(gp)
  800b40:	10803fcc 	andi	r2,r2,255
  800b44:	1080201c 	xori	r2,r2,128
  800b48:	10bfe004 	addi	r2,r2,-128
  800b4c:	1005003a 	cmpeq	r2,r2,zero
  800b50:	1007883a 	mov	r3,r2
  800b54:	d0a76f03 	ldbu	r2,-25156(gp)
  800b58:	1884703a 	and	r2,r3,r2
  800b5c:	1007883a 	mov	r3,r2
  800b60:	d0a75383 	ldbu	r2,-25266(gp)
  800b64:	10803fcc 	andi	r2,r2,255
  800b68:	1080201c 	xori	r2,r2,128
  800b6c:	10bfe004 	addi	r2,r2,-128
  800b70:	1005003a 	cmpeq	r2,r2,zero
  800b74:	1884703a 	and	r2,r3,r2
  800b78:	d0a75885 	stb	r2,-25246(gp)
      g17 =(g16b&&_cg16);
  800b7c:	d0a77fc3 	ldbu	r2,-25089(gp)
  800b80:	10803fcc 	andi	r2,r2,255
  800b84:	1080201c 	xori	r2,r2,128
  800b88:	10bfe004 	addi	r2,r2,-128
  800b8c:	10000726 	beq	r2,zero,800bac <tick+0x434>
  800b90:	d0a75883 	ldbu	r2,-25246(gp)
  800b94:	10803fcc 	andi	r2,r2,255
  800b98:	1080201c 	xori	r2,r2,128
  800b9c:	10bfe004 	addi	r2,r2,-128
  800ba0:	10000226 	beq	r2,zero,800bac <tick+0x434>
  800ba4:	00800044 	movi	r2,1
  800ba8:	00000106 	br	800bb0 <tick+0x438>
  800bac:	0005883a 	mov	r2,zero
  800bb0:	d0a747c5 	stb	r2,-25313(gp)
      if(g17){
  800bb4:	d0a747c3 	ldbu	r2,-25313(gp)
  800bb8:	10803fcc 	andi	r2,r2,255
  800bbc:	1080201c 	xori	r2,r2,128
  800bc0:	10bfe004 	addi	r2,r2,-128
  800bc4:	10000426 	beq	r2,zero,800bd8 <tick+0x460>
         vs_accept = 1;
  800bc8:	00800044 	movi	r2,1
  800bcc:	d0a769c5 	stb	r2,-25177(gp)
         vp = 1;
  800bd0:	00800044 	movi	r2,1
  800bd4:	d0a76f45 	stb	r2,-25155(gp)
      }
      g41 =(PRE_g40);
  800bd8:	d0a74ac3 	ldbu	r2,-25301(gp)
  800bdc:	d0a74a05 	stb	r2,-25304(gp)
      g41b = g41;
  800be0:	d0a74a03 	ldbu	r2,-25304(gp)
  800be4:	d0a76a45 	stb	r2,-25175(gp)
      _cg41 = vs_accept;
  800be8:	d0a769c3 	ldbu	r2,-25177(gp)
  800bec:	d0a77405 	stb	r2,-25136(gp)
      g53 =(PRE_g52);
  800bf0:	d0a76143 	ldbu	r2,-25211(gp)
  800bf4:	d0a77645 	stb	r2,-25127(gp)
      _cg53 = 1;
  800bf8:	00800044 	movi	r2,1
  800bfc:	d0a75845 	stb	r2,-25247(gp)
      g54 =(g53&&_cg53);
  800c00:	d0a77643 	ldbu	r2,-25127(gp)
  800c04:	10803fcc 	andi	r2,r2,255
  800c08:	1080201c 	xori	r2,r2,128
  800c0c:	10bfe004 	addi	r2,r2,-128
  800c10:	10000726 	beq	r2,zero,800c30 <tick+0x4b8>
  800c14:	d0a75843 	ldbu	r2,-25247(gp)
  800c18:	10803fcc 	andi	r2,r2,255
  800c1c:	1080201c 	xori	r2,r2,128
  800c20:	10bfe004 	addi	r2,r2,-128
  800c24:	10000226 	beq	r2,zero,800c30 <tick+0x4b8>
  800c28:	00800044 	movi	r2,1
  800c2c:	00000106 	br	800c34 <tick+0x4bc>
  800c30:	0005883a 	mov	r2,zero
  800c34:	d0a75bc5 	stb	r2,-25233(gp)
      if(g54){
  800c38:	d0a75bc3 	ldbu	r2,-25233(gp)
  800c3c:	10803fcc 	andi	r2,r2,255
  800c40:	1080201c 	xori	r2,r2,128
  800c44:	10bfe004 	addi	r2,r2,-128
  800c48:	10000226 	beq	r2,zero,800c54 <tick+0x4dc>
         _trig2 = 1;
  800c4c:	00800044 	movi	r2,1
  800c50:	d0a76a05 	stb	r2,-25176(gp)
      }
      g42 =(g41b&&(!(_cg41)));
  800c54:	d0a76a43 	ldbu	r2,-25175(gp)
  800c58:	10803fcc 	andi	r2,r2,255
  800c5c:	1080201c 	xori	r2,r2,128
  800c60:	10bfe004 	addi	r2,r2,-128
  800c64:	10000726 	beq	r2,zero,800c84 <tick+0x50c>
  800c68:	d0a77403 	ldbu	r2,-25136(gp)
  800c6c:	10803fcc 	andi	r2,r2,255
  800c70:	1080201c 	xori	r2,r2,128
  800c74:	10bfe004 	addi	r2,r2,-128
  800c78:	1000021e 	bne	r2,zero,800c84 <tick+0x50c>
  800c7c:	00800044 	movi	r2,1
  800c80:	00000106 	br	800c88 <tick+0x510>
  800c84:	0005883a 	mov	r2,zero
  800c88:	d0a73a05 	stb	r2,-25368(gp)
      _cg42 =(t_avi < (to_avi - 2));
  800c8c:	d0a78217 	ldw	r2,-25080(gp)
  800c90:	10bfff84 	addi	r2,r2,-2
  800c94:	d0e75517 	ldw	r3,-25260(gp)
  800c98:	1884803a 	cmplt	r2,r3,r2
  800c9c:	d0a73105 	stb	r2,-25404(gp)
      g44 =(g42&&(!(_cg42)));
  800ca0:	d0a73a03 	ldbu	r2,-25368(gp)
  800ca4:	10803fcc 	andi	r2,r2,255
  800ca8:	1080201c 	xori	r2,r2,128
  800cac:	10bfe004 	addi	r2,r2,-128
  800cb0:	10000726 	beq	r2,zero,800cd0 <tick+0x558>
  800cb4:	d0a73103 	ldbu	r2,-25404(gp)
  800cb8:	10803fcc 	andi	r2,r2,255
  800cbc:	1080201c 	xori	r2,r2,128
  800cc0:	10bfe004 	addi	r2,r2,-128
  800cc4:	1000021e 	bne	r2,zero,800cd0 <tick+0x558>
  800cc8:	00800044 	movi	r2,1
  800ccc:	00000106 	br	800cd4 <tick+0x55c>
  800cd0:	0005883a 	mov	r2,zero
  800cd4:	d0a740c5 	stb	r2,-25341(gp)
      _cg44 =(t_avi >= (to_avi - 2));
  800cd8:	d0a78217 	ldw	r2,-25080(gp)
  800cdc:	10bfff84 	addi	r2,r2,-2
  800ce0:	d0e75517 	ldw	r3,-25260(gp)
  800ce4:	1884403a 	cmpge	r2,r3,r2
  800ce8:	d0a75cc5 	stb	r2,-25229(gp)
      g45 =(g44&&_cg44);
  800cec:	d0a740c3 	ldbu	r2,-25341(gp)
  800cf0:	10803fcc 	andi	r2,r2,255
  800cf4:	1080201c 	xori	r2,r2,128
  800cf8:	10bfe004 	addi	r2,r2,-128
  800cfc:	10000726 	beq	r2,zero,800d1c <tick+0x5a4>
  800d00:	d0a75cc3 	ldbu	r2,-25229(gp)
  800d04:	10803fcc 	andi	r2,r2,255
  800d08:	1080201c 	xori	r2,r2,128
  800d0c:	10bfe004 	addi	r2,r2,-128
  800d10:	10000226 	beq	r2,zero,800d1c <tick+0x5a4>
  800d14:	00800044 	movi	r2,1
  800d18:	00000106 	br	800d20 <tick+0x5a8>
  800d1c:	0005883a 	mov	r2,zero
  800d20:	d0a78345 	stb	r2,-25075(gp)
      if(g45){
  800d24:	d0a78343 	ldbu	r2,-25075(gp)
  800d28:	10803fcc 	andi	r2,r2,255
  800d2c:	1080201c 	xori	r2,r2,128
  800d30:	10bfe004 	addi	r2,r2,-128
  800d34:	10000326 	beq	r2,zero,800d44 <tick+0x5cc>
         AVI_p = 1;
  800d38:	00800044 	movi	r2,1
  800d3c:	d0a74bc5 	stb	r2,-25297(gp)
         _trig2 = 0;
  800d40:	d0276a05 	stb	zero,-25176(gp)
      }
      g46 = g45;
  800d44:	d0a78343 	ldbu	r2,-25075(gp)
  800d48:	d0a76e85 	stb	r2,-25158(gp)
      g50 =(PRE_g49);
  800d4c:	d0a74b03 	ldbu	r2,-25300(gp)
  800d50:	d0a76fc5 	stb	r2,-25153(gp)
      if(g50){
  800d54:	d0a76fc3 	ldbu	r2,-25153(gp)
  800d58:	10803fcc 	andi	r2,r2,255
  800d5c:	1080201c 	xori	r2,r2,128
  800d60:	10bfe004 	addi	r2,r2,-128
  800d64:	10000126 	beq	r2,zero,800d6c <tick+0x5f4>
         AVI = 0;
  800d68:	d0275985 	stb	zero,-25242(gp)
      }
      g47 =(g46||g50);
  800d6c:	d0a76e83 	ldbu	r2,-25158(gp)
  800d70:	10803fcc 	andi	r2,r2,255
  800d74:	1080201c 	xori	r2,r2,128
  800d78:	10bfe004 	addi	r2,r2,-128
  800d7c:	1000051e 	bne	r2,zero,800d94 <tick+0x61c>
  800d80:	d0a76fc3 	ldbu	r2,-25153(gp)
  800d84:	10803fcc 	andi	r2,r2,255
  800d88:	1080201c 	xori	r2,r2,128
  800d8c:	10bfe004 	addi	r2,r2,-128
  800d90:	10000226 	beq	r2,zero,800d9c <tick+0x624>
  800d94:	00800044 	movi	r2,1
  800d98:	00000106 	br	800da0 <tick+0x628>
  800d9c:	0005883a 	mov	r2,zero
  800da0:	d0a73985 	stb	r2,-25370(gp)
      _cg47 = _trig2;
  800da4:	d0a76a03 	ldbu	r2,-25176(gp)
  800da8:	d0a77745 	stb	r2,-25123(gp)
      g49 =(g47&&(!(_cg47)));
  800dac:	d0a73983 	ldbu	r2,-25370(gp)
  800db0:	10803fcc 	andi	r2,r2,255
  800db4:	1080201c 	xori	r2,r2,128
  800db8:	10bfe004 	addi	r2,r2,-128
  800dbc:	10000726 	beq	r2,zero,800ddc <tick+0x664>
  800dc0:	d0a77743 	ldbu	r2,-25123(gp)
  800dc4:	10803fcc 	andi	r2,r2,255
  800dc8:	1080201c 	xori	r2,r2,128
  800dcc:	10bfe004 	addi	r2,r2,-128
  800dd0:	1000021e 	bne	r2,zero,800ddc <tick+0x664>
  800dd4:	00800044 	movi	r2,1
  800dd8:	00000106 	br	800de0 <tick+0x668>
  800ddc:	0005883a 	mov	r2,zero
  800de0:	d0a75785 	stb	r2,-25250(gp)
      g48_e1 =(!(g49));
  800de4:	d0a75783 	ldbu	r2,-25250(gp)
  800de8:	10803fcc 	andi	r2,r2,255
  800dec:	1080201c 	xori	r2,r2,128
  800df0:	10bfe004 	addi	r2,r2,-128
  800df4:	1005003a 	cmpeq	r2,r2,zero
  800df8:	d0a75d45 	stb	r2,-25227(gp)
      g48 =(g47&&_cg47);
  800dfc:	d0a73983 	ldbu	r2,-25370(gp)
  800e00:	10803fcc 	andi	r2,r2,255
  800e04:	1080201c 	xori	r2,r2,128
  800e08:	10bfe004 	addi	r2,r2,-128
  800e0c:	10000726 	beq	r2,zero,800e2c <tick+0x6b4>
  800e10:	d0a77743 	ldbu	r2,-25123(gp)
  800e14:	10803fcc 	andi	r2,r2,255
  800e18:	1080201c 	xori	r2,r2,128
  800e1c:	10bfe004 	addi	r2,r2,-128
  800e20:	10000226 	beq	r2,zero,800e2c <tick+0x6b4>
  800e24:	00800044 	movi	r2,1
  800e28:	00000106 	br	800e30 <tick+0x6b8>
  800e2c:	0005883a 	mov	r2,zero
  800e30:	d0a74e85 	stb	r2,-25286(gp)
      g51 = g45;
  800e34:	d0a78343 	ldbu	r2,-25075(gp)
  800e38:	d0a77045 	stb	r2,-25151(gp)
      g52 =(g51||(g53&&(!(_cg53))));
  800e3c:	d0a77043 	ldbu	r2,-25151(gp)
  800e40:	10803fcc 	andi	r2,r2,255
  800e44:	1080201c 	xori	r2,r2,128
  800e48:	10bfe004 	addi	r2,r2,-128
  800e4c:	10000a1e 	bne	r2,zero,800e78 <tick+0x700>
  800e50:	d0a77643 	ldbu	r2,-25127(gp)
  800e54:	10803fcc 	andi	r2,r2,255
  800e58:	1080201c 	xori	r2,r2,128
  800e5c:	10bfe004 	addi	r2,r2,-128
  800e60:	10000726 	beq	r2,zero,800e80 <tick+0x708>
  800e64:	d0a75843 	ldbu	r2,-25247(gp)
  800e68:	10803fcc 	andi	r2,r2,255
  800e6c:	1080201c 	xori	r2,r2,128
  800e70:	10bfe004 	addi	r2,r2,-128
  800e74:	1000021e 	bne	r2,zero,800e80 <tick+0x708>
  800e78:	00800044 	movi	r2,1
  800e7c:	00000106 	br	800e84 <tick+0x70c>
  800e80:	0005883a 	mov	r2,zero
  800e84:	d0a74585 	stb	r2,-25322(gp)
      g54_e2 =(!(g52));
  800e88:	d0a74583 	ldbu	r2,-25322(gp)
  800e8c:	10803fcc 	andi	r2,r2,255
  800e90:	1080201c 	xori	r2,r2,128
  800e94:	10bfe004 	addi	r2,r2,-128
  800e98:	1005003a 	cmpeq	r2,r2,zero
  800e9c:	d0a74745 	stb	r2,-25315(gp)
      g55 =((g48_e1||g48)&&(g54_e2||g54)&&(g48||g54));
  800ea0:	d0a75d43 	ldbu	r2,-25227(gp)
  800ea4:	10803fcc 	andi	r2,r2,255
  800ea8:	1080201c 	xori	r2,r2,128
  800eac:	10bfe004 	addi	r2,r2,-128
  800eb0:	1000051e 	bne	r2,zero,800ec8 <tick+0x750>
  800eb4:	d0a74e83 	ldbu	r2,-25286(gp)
  800eb8:	10803fcc 	andi	r2,r2,255
  800ebc:	1080201c 	xori	r2,r2,128
  800ec0:	10bfe004 	addi	r2,r2,-128
  800ec4:	10001626 	beq	r2,zero,800f20 <tick+0x7a8>
  800ec8:	d0a74743 	ldbu	r2,-25315(gp)
  800ecc:	10803fcc 	andi	r2,r2,255
  800ed0:	1080201c 	xori	r2,r2,128
  800ed4:	10bfe004 	addi	r2,r2,-128
  800ed8:	1000051e 	bne	r2,zero,800ef0 <tick+0x778>
  800edc:	d0a75bc3 	ldbu	r2,-25233(gp)
  800ee0:	10803fcc 	andi	r2,r2,255
  800ee4:	1080201c 	xori	r2,r2,128
  800ee8:	10bfe004 	addi	r2,r2,-128
  800eec:	10000c26 	beq	r2,zero,800f20 <tick+0x7a8>
  800ef0:	d0a74e83 	ldbu	r2,-25286(gp)
  800ef4:	10803fcc 	andi	r2,r2,255
  800ef8:	1080201c 	xori	r2,r2,128
  800efc:	10bfe004 	addi	r2,r2,-128
  800f00:	1000051e 	bne	r2,zero,800f18 <tick+0x7a0>
  800f04:	d0a75bc3 	ldbu	r2,-25233(gp)
  800f08:	10803fcc 	andi	r2,r2,255
  800f0c:	1080201c 	xori	r2,r2,128
  800f10:	10bfe004 	addi	r2,r2,-128
  800f14:	10000226 	beq	r2,zero,800f20 <tick+0x7a8>
  800f18:	00800044 	movi	r2,1
  800f1c:	00000106 	br	800f24 <tick+0x7ac>
  800f20:	0005883a 	mov	r2,zero
  800f24:	d0a73605 	stb	r2,-25384(gp)
      g25 = g0;
  800f28:	d0a77ac3 	ldbu	r2,-25109(gp)
  800f2c:	d0a77cc5 	stb	r2,-25101(gp)
      g26 =((g41b&&_cg41)||g55||g25);
  800f30:	d0a76a43 	ldbu	r2,-25175(gp)
  800f34:	10803fcc 	andi	r2,r2,255
  800f38:	1080201c 	xori	r2,r2,128
  800f3c:	10bfe004 	addi	r2,r2,-128
  800f40:	10000526 	beq	r2,zero,800f58 <tick+0x7e0>
  800f44:	d0a77403 	ldbu	r2,-25136(gp)
  800f48:	10803fcc 	andi	r2,r2,255
  800f4c:	1080201c 	xori	r2,r2,128
  800f50:	10bfe004 	addi	r2,r2,-128
  800f54:	10000a1e 	bne	r2,zero,800f80 <tick+0x808>
  800f58:	d0a73603 	ldbu	r2,-25384(gp)
  800f5c:	10803fcc 	andi	r2,r2,255
  800f60:	1080201c 	xori	r2,r2,128
  800f64:	10bfe004 	addi	r2,r2,-128
  800f68:	1000051e 	bne	r2,zero,800f80 <tick+0x808>
  800f6c:	d0a77cc3 	ldbu	r2,-25101(gp)
  800f70:	10803fcc 	andi	r2,r2,255
  800f74:	1080201c 	xori	r2,r2,128
  800f78:	10bfe004 	addi	r2,r2,-128
  800f7c:	10000226 	beq	r2,zero,800f88 <tick+0x810>
  800f80:	00800044 	movi	r2,1
  800f84:	00000106 	br	800f8c <tick+0x814>
  800f88:	0005883a 	mov	r2,zero
  800f8c:	d0a78a05 	stb	r2,-25048(gp)
      if(g26){
  800f90:	d0a78a03 	ldbu	r2,-25048(gp)
  800f94:	10803fcc 	andi	r2,r2,255
  800f98:	1080201c 	xori	r2,r2,128
  800f9c:	10bfe004 	addi	r2,r2,-128
  800fa0:	10000326 	beq	r2,zero,800fb0 <tick+0x838>
         AVI = 0;
  800fa4:	d0275985 	stb	zero,-25242(gp)
         t_avi = 0;
  800fa8:	d0275515 	stw	zero,-25260(gp)
         _trig = 0;
  800fac:	d0275345 	stb	zero,-25267(gp)
      }
      g43 =(g42&&_cg42);
  800fb0:	d0a73a03 	ldbu	r2,-25368(gp)
  800fb4:	10803fcc 	andi	r2,r2,255
  800fb8:	1080201c 	xori	r2,r2,128
  800fbc:	10bfe004 	addi	r2,r2,-128
  800fc0:	10000726 	beq	r2,zero,800fe0 <tick+0x868>
  800fc4:	d0a73103 	ldbu	r2,-25404(gp)
  800fc8:	10803fcc 	andi	r2,r2,255
  800fcc:	1080201c 	xori	r2,r2,128
  800fd0:	10bfe004 	addi	r2,r2,-128
  800fd4:	10000226 	beq	r2,zero,800fe0 <tick+0x868>
  800fd8:	00800044 	movi	r2,1
  800fdc:	00000106 	br	800fe4 <tick+0x86c>
  800fe0:	0005883a 	mov	r2,zero
  800fe4:	d0a76b45 	stb	r2,-25171(gp)
      if(g43){
  800fe8:	d0a76b43 	ldbu	r2,-25171(gp)
  800fec:	10803fcc 	andi	r2,r2,255
  800ff0:	1080201c 	xori	r2,r2,128
  800ff4:	10bfe004 	addi	r2,r2,-128
  800ff8:	10000326 	beq	r2,zero,801008 <tick+0x890>
         t_avi++;
  800ffc:	d0a75517 	ldw	r2,-25260(gp)
  801000:	10800044 	addi	r2,r2,1
  801004:	d0a75515 	stw	r2,-25260(gp)
      }
      g38 =(PRE_g37);
  801008:	d0a78ac3 	ldbu	r2,-25045(gp)
  80100c:	d0a75045 	stb	r2,-25279(gp)
      _cg38 = 1;
  801010:	00800044 	movi	r2,1
  801014:	d0a765c5 	stb	r2,-25193(gp)
      g39 =(g43||(g38&&_cg38));
  801018:	d0a76b43 	ldbu	r2,-25171(gp)
  80101c:	10803fcc 	andi	r2,r2,255
  801020:	1080201c 	xori	r2,r2,128
  801024:	10bfe004 	addi	r2,r2,-128
  801028:	10000a1e 	bne	r2,zero,801054 <tick+0x8dc>
  80102c:	d0a75043 	ldbu	r2,-25279(gp)
  801030:	10803fcc 	andi	r2,r2,255
  801034:	1080201c 	xori	r2,r2,128
  801038:	10bfe004 	addi	r2,r2,-128
  80103c:	10000726 	beq	r2,zero,80105c <tick+0x8e4>
  801040:	d0a765c3 	ldbu	r2,-25193(gp)
  801044:	10803fcc 	andi	r2,r2,255
  801048:	1080201c 	xori	r2,r2,128
  80104c:	10bfe004 	addi	r2,r2,-128
  801050:	10000226 	beq	r2,zero,80105c <tick+0x8e4>
  801054:	00800044 	movi	r2,1
  801058:	00000106 	br	801060 <tick+0x8e8>
  80105c:	0005883a 	mov	r2,zero
  801060:	d0a78505 	stb	r2,-25068(gp)
      if(g39){
  801064:	d0a78503 	ldbu	r2,-25068(gp)
  801068:	10803fcc 	andi	r2,r2,255
  80106c:	1080201c 	xori	r2,r2,128
  801070:	10bfe004 	addi	r2,r2,-128
  801074:	10000226 	beq	r2,zero,801080 <tick+0x908>
         AVI = 1;
  801078:	00800044 	movi	r2,1
  80107c:	d0a75985 	stb	r2,-25242(gp)
      }
      g95 =(PRE_g94);
  801080:	d0a74c03 	ldbu	r2,-25296(gp)
  801084:	d0a76f85 	stb	r2,-25154(gp)
      if(g95){
  801088:	d0a76f83 	ldbu	r2,-25154(gp)
  80108c:	10803fcc 	andi	r2,r2,255
  801090:	1080201c 	xori	r2,r2,128
  801094:	10bfe004 	addi	r2,r2,-128
  801098:	10000126 	beq	r2,zero,8010a0 <tick+0x928>
         AEI_p = 0;
  80109c:	d0277f45 	stb	zero,-25091(gp)
      }
      g31 =(PRE_g30);
  8010a0:	d0a78483 	ldbu	r2,-25070(gp)
  8010a4:	d0a74885 	stb	r2,-25310(gp)
      if(g31){
  8010a8:	d0a74883 	ldbu	r2,-25310(gp)
  8010ac:	10803fcc 	andi	r2,r2,255
  8010b0:	1080201c 	xori	r2,r2,128
  8010b4:	10bfe004 	addi	r2,r2,-128
  8010b8:	10000126 	beq	r2,zero,8010c0 <tick+0x948>
         AVI_p = 0;
  8010bc:	d0274bc5 	stb	zero,-25297(gp)
      }
      g57 = g0;
  8010c0:	d0a77ac3 	ldbu	r2,-25109(gp)
  8010c4:	d0a776c5 	stb	r2,-25125(gp)
      g65 =(PRE_g64);
  8010c8:	d0a78443 	ldbu	r2,-25071(gp)
  8010cc:	d0a77e05 	stb	r2,-25096(gp)
      _cg65 =(t_pvarp < (to_pvarp - 1));
  8010d0:	d0a76c17 	ldw	r2,-25168(gp)
  8010d4:	10bfffc4 	addi	r2,r2,-1
  8010d8:	d0e77317 	ldw	r3,-25140(gp)
  8010dc:	1884803a 	cmplt	r2,r3,r2
  8010e0:	d0a76d05 	stb	r2,-25164(gp)
      g67 =(g65&&(!(_cg65)));
  8010e4:	d0a77e03 	ldbu	r2,-25096(gp)
  8010e8:	10803fcc 	andi	r2,r2,255
  8010ec:	1080201c 	xori	r2,r2,128
  8010f0:	10bfe004 	addi	r2,r2,-128
  8010f4:	10000726 	beq	r2,zero,801114 <tick+0x99c>
  8010f8:	d0a76d03 	ldbu	r2,-25164(gp)
  8010fc:	10803fcc 	andi	r2,r2,255
  801100:	1080201c 	xori	r2,r2,128
  801104:	10bfe004 	addi	r2,r2,-128
  801108:	1000021e 	bne	r2,zero,801114 <tick+0x99c>
  80110c:	00800044 	movi	r2,1
  801110:	00000106 	br	801118 <tick+0x9a0>
  801114:	0005883a 	mov	r2,zero
  801118:	d0a78605 	stb	r2,-25064(gp)
      _cg67 =(t_pvarp >= (to_pvarp - 1));
  80111c:	d0a76c17 	ldw	r2,-25168(gp)
  801120:	10bfffc4 	addi	r2,r2,-1
  801124:	d0e77317 	ldw	r3,-25140(gp)
  801128:	1884403a 	cmpge	r2,r3,r2
  80112c:	d0a78785 	stb	r2,-25058(gp)
      g58 =(g57||(g67&&_cg67));
  801130:	d0a776c3 	ldbu	r2,-25125(gp)
  801134:	10803fcc 	andi	r2,r2,255
  801138:	1080201c 	xori	r2,r2,128
  80113c:	10bfe004 	addi	r2,r2,-128
  801140:	10000a1e 	bne	r2,zero,80116c <tick+0x9f4>
  801144:	d0a78603 	ldbu	r2,-25064(gp)
  801148:	10803fcc 	andi	r2,r2,255
  80114c:	1080201c 	xori	r2,r2,128
  801150:	10bfe004 	addi	r2,r2,-128
  801154:	10000726 	beq	r2,zero,801174 <tick+0x9fc>
  801158:	d0a78783 	ldbu	r2,-25058(gp)
  80115c:	10803fcc 	andi	r2,r2,255
  801160:	1080201c 	xori	r2,r2,128
  801164:	10bfe004 	addi	r2,r2,-128
  801168:	10000226 	beq	r2,zero,801174 <tick+0x9fc>
  80116c:	00800044 	movi	r2,1
  801170:	00000106 	br	801178 <tick+0xa00>
  801174:	0005883a 	mov	r2,zero
  801178:	d0a77c45 	stb	r2,-25103(gp)
      if(g58){
  80117c:	d0a77c43 	ldbu	r2,-25103(gp)
  801180:	10803fcc 	andi	r2,r2,255
  801184:	1080201c 	xori	r2,r2,128
  801188:	10bfe004 	addi	r2,r2,-128
  80118c:	10000226 	beq	r2,zero,801198 <tick+0xa20>
         PVARP = 0;
  801190:	d02780c5 	stb	zero,-25085(gp)
         t_pvarp = 0;
  801194:	d0277315 	stw	zero,-25140(gp)
      }
      g66 =(g65&&_cg65);
  801198:	d0a77e03 	ldbu	r2,-25096(gp)
  80119c:	10803fcc 	andi	r2,r2,255
  8011a0:	1080201c 	xori	r2,r2,128
  8011a4:	10bfe004 	addi	r2,r2,-128
  8011a8:	10000726 	beq	r2,zero,8011c8 <tick+0xa50>
  8011ac:	d0a76d03 	ldbu	r2,-25164(gp)
  8011b0:	10803fcc 	andi	r2,r2,255
  8011b4:	1080201c 	xori	r2,r2,128
  8011b8:	10bfe004 	addi	r2,r2,-128
  8011bc:	10000226 	beq	r2,zero,8011c8 <tick+0xa50>
  8011c0:	00800044 	movi	r2,1
  8011c4:	00000106 	br	8011cc <tick+0xa54>
  8011c8:	0005883a 	mov	r2,zero
  8011cc:	d0a75c05 	stb	r2,-25232(gp)
      if(g66){
  8011d0:	d0a75c03 	ldbu	r2,-25232(gp)
  8011d4:	10803fcc 	andi	r2,r2,255
  8011d8:	1080201c 	xori	r2,r2,128
  8011dc:	10bfe004 	addi	r2,r2,-128
  8011e0:	10000326 	beq	r2,zero,8011f0 <tick+0xa78>
         t_pvarp++;
  8011e4:	d0a77317 	ldw	r2,-25140(gp)
  8011e8:	10800044 	addi	r2,r2,1
  8011ec:	d0a77315 	stw	r2,-25140(gp)
      }
      g62 =(PRE_g61);
  8011f0:	d0a77443 	ldbu	r2,-25135(gp)
  8011f4:	d0a74985 	stb	r2,-25306(gp)
      _cg62 = 1;
  8011f8:	00800044 	movi	r2,1
  8011fc:	d0a78905 	stb	r2,-25052(gp)
      g63 =(g66||(g62&&_cg62));
  801200:	d0a75c03 	ldbu	r2,-25232(gp)
  801204:	10803fcc 	andi	r2,r2,255
  801208:	1080201c 	xori	r2,r2,128
  80120c:	10bfe004 	addi	r2,r2,-128
  801210:	10000a1e 	bne	r2,zero,80123c <tick+0xac4>
  801214:	d0a74983 	ldbu	r2,-25306(gp)
  801218:	10803fcc 	andi	r2,r2,255
  80121c:	1080201c 	xori	r2,r2,128
  801220:	10bfe004 	addi	r2,r2,-128
  801224:	10000726 	beq	r2,zero,801244 <tick+0xacc>
  801228:	d0a78903 	ldbu	r2,-25052(gp)
  80122c:	10803fcc 	andi	r2,r2,255
  801230:	1080201c 	xori	r2,r2,128
  801234:	10bfe004 	addi	r2,r2,-128
  801238:	10000226 	beq	r2,zero,801244 <tick+0xacc>
  80123c:	00800044 	movi	r2,1
  801240:	00000106 	br	801248 <tick+0xad0>
  801244:	0005883a 	mov	r2,zero
  801248:	d0a76705 	stb	r2,-25188(gp)
      if(g63){
  80124c:	d0a76703 	ldbu	r2,-25188(gp)
  801250:	10803fcc 	andi	r2,r2,255
  801254:	1080201c 	xori	r2,r2,128
  801258:	10bfe004 	addi	r2,r2,-128
  80125c:	10000226 	beq	r2,zero,801268 <tick+0xaf0>
         PVARP = 1;
  801260:	00800044 	movi	r2,1
  801264:	d0a780c5 	stb	r2,-25085(gp)
      }
      g4 =(PRE_g3);
  801268:	d0a73d03 	ldbu	r2,-25356(gp)
  80126c:	d0a73285 	stb	r2,-25398(gp)
      g4b = g4;
  801270:	d0a73283 	ldbu	r2,-25398(gp)
  801274:	d0a78745 	stb	r2,-25059(gp)
      _cg4 =((!(PVARP))&(!(AVI))&as&(!(AVI_p)));
  801278:	d0a780c3 	ldbu	r2,-25085(gp)
  80127c:	10803fcc 	andi	r2,r2,255
  801280:	1080201c 	xori	r2,r2,128
  801284:	10bfe004 	addi	r2,r2,-128
  801288:	1005003a 	cmpeq	r2,r2,zero
  80128c:	1007883a 	mov	r3,r2
  801290:	d0a75983 	ldbu	r2,-25242(gp)
  801294:	10803fcc 	andi	r2,r2,255
  801298:	1080201c 	xori	r2,r2,128
  80129c:	10bfe004 	addi	r2,r2,-128
  8012a0:	1005003a 	cmpeq	r2,r2,zero
  8012a4:	1884703a 	and	r2,r3,r2
  8012a8:	1007883a 	mov	r3,r2
  8012ac:	d0a76303 	ldbu	r2,-25204(gp)
  8012b0:	1884703a 	and	r2,r3,r2
  8012b4:	1007883a 	mov	r3,r2
  8012b8:	d0a74bc3 	ldbu	r2,-25297(gp)
  8012bc:	10803fcc 	andi	r2,r2,255
  8012c0:	1080201c 	xori	r2,r2,128
  8012c4:	10bfe004 	addi	r2,r2,-128
  8012c8:	1005003a 	cmpeq	r2,r2,zero
  8012cc:	1884703a 	and	r2,r3,r2
  8012d0:	d0a785c5 	stb	r2,-25065(gp)
      g5 =(g4b&&_cg4);
  8012d4:	d0a78743 	ldbu	r2,-25059(gp)
  8012d8:	10803fcc 	andi	r2,r2,255
  8012dc:	1080201c 	xori	r2,r2,128
  8012e0:	10bfe004 	addi	r2,r2,-128
  8012e4:	10000726 	beq	r2,zero,801304 <tick+0xb8c>
  8012e8:	d0a785c3 	ldbu	r2,-25065(gp)
  8012ec:	10803fcc 	andi	r2,r2,255
  8012f0:	1080201c 	xori	r2,r2,128
  8012f4:	10bfe004 	addi	r2,r2,-128
  8012f8:	10000226 	beq	r2,zero,801304 <tick+0xb8c>
  8012fc:	00800044 	movi	r2,1
  801300:	00000106 	br	801308 <tick+0xb90>
  801304:	0005883a 	mov	r2,zero
  801308:	d0a75685 	stb	r2,-25254(gp)
      if(g5){
  80130c:	d0a75683 	ldbu	r2,-25254(gp)
  801310:	10803fcc 	andi	r2,r2,255
  801314:	1080201c 	xori	r2,r2,128
  801318:	10bfe004 	addi	r2,r2,-128
  80131c:	10000426 	beq	r2,zero,801330 <tick+0xbb8>
         as_accept = 1;
  801320:	00800044 	movi	r2,1
  801324:	d0a78a45 	stb	r2,-25047(gp)
         ap = 1;
  801328:	00800044 	movi	r2,1
  80132c:	d0a74cc5 	stb	r2,-25293(gp)
      }
      g105 =(PRE_g104);
  801330:	d0a74d83 	ldbu	r2,-25290(gp)
  801334:	d0a750c5 	stb	r2,-25277(gp)
      _cg105 =(t_aei < (to_aei - 1));
  801338:	d0a76817 	ldw	r2,-25184(gp)
  80133c:	10bfffc4 	addi	r2,r2,-1
  801340:	d0e73f17 	ldw	r3,-25348(gp)
  801344:	1884803a 	cmplt	r2,r3,r2
  801348:	d0a78b05 	stb	r2,-25044(gp)
      g107 =(g105&&(!(_cg105)));
  80134c:	d0a750c3 	ldbu	r2,-25277(gp)
  801350:	10803fcc 	andi	r2,r2,255
  801354:	1080201c 	xori	r2,r2,128
  801358:	10bfe004 	addi	r2,r2,-128
  80135c:	10000726 	beq	r2,zero,80137c <tick+0xc04>
  801360:	d0a78b03 	ldbu	r2,-25044(gp)
  801364:	10803fcc 	andi	r2,r2,255
  801368:	1080201c 	xori	r2,r2,128
  80136c:	10bfe004 	addi	r2,r2,-128
  801370:	1000021e 	bne	r2,zero,80137c <tick+0xc04>
  801374:	00800044 	movi	r2,1
  801378:	00000106 	br	801380 <tick+0xc08>
  80137c:	0005883a 	mov	r2,zero
  801380:	d0a77145 	stb	r2,-25147(gp)
      _cg107 = as_accept;
  801384:	d0a78a43 	ldbu	r2,-25047(gp)
  801388:	d0a75405 	stb	r2,-25264(gp)
      g108 =(g107&&(!(_cg107)));
  80138c:	d0a77143 	ldbu	r2,-25147(gp)
  801390:	10803fcc 	andi	r2,r2,255
  801394:	1080201c 	xori	r2,r2,128
  801398:	10bfe004 	addi	r2,r2,-128
  80139c:	10000726 	beq	r2,zero,8013bc <tick+0xc44>
  8013a0:	d0a75403 	ldbu	r2,-25264(gp)
  8013a4:	10803fcc 	andi	r2,r2,255
  8013a8:	1080201c 	xori	r2,r2,128
  8013ac:	10bfe004 	addi	r2,r2,-128
  8013b0:	1000021e 	bne	r2,zero,8013bc <tick+0xc44>
  8013b4:	00800044 	movi	r2,1
  8013b8:	00000106 	br	8013c0 <tick+0xc48>
  8013bc:	0005883a 	mov	r2,zero
  8013c0:	d0a732c5 	stb	r2,-25397(gp)
      _cg108 =((t_aei >= (to_aei - 1))|as_accept);
  8013c4:	d0a76817 	ldw	r2,-25184(gp)
  8013c8:	10bfffc4 	addi	r2,r2,-1
  8013cc:	d0e73f17 	ldw	r3,-25348(gp)
  8013d0:	1884403a 	cmpge	r2,r3,r2
  8013d4:	1007883a 	mov	r3,r2
  8013d8:	d0a78a43 	ldbu	r2,-25047(gp)
  8013dc:	1884b03a 	or	r2,r3,r2
  8013e0:	d0a77a45 	stb	r2,-25111(gp)
      g109 =(g108&&_cg108);
  8013e4:	d0a732c3 	ldbu	r2,-25397(gp)
  8013e8:	10803fcc 	andi	r2,r2,255
  8013ec:	1080201c 	xori	r2,r2,128
  8013f0:	10bfe004 	addi	r2,r2,-128
  8013f4:	10000726 	beq	r2,zero,801414 <tick+0xc9c>
  8013f8:	d0a77a43 	ldbu	r2,-25111(gp)
  8013fc:	10803fcc 	andi	r2,r2,255
  801400:	1080201c 	xori	r2,r2,128
  801404:	10bfe004 	addi	r2,r2,-128
  801408:	10000226 	beq	r2,zero,801414 <tick+0xc9c>
  80140c:	00800044 	movi	r2,1
  801410:	00000106 	br	801418 <tick+0xca0>
  801414:	0005883a 	mov	r2,zero
  801418:	d0a786c5 	stb	r2,-25061(gp)
      if(g109){
  80141c:	d0a786c3 	ldbu	r2,-25061(gp)
  801420:	10803fcc 	andi	r2,r2,255
  801424:	1080201c 	xori	r2,r2,128
  801428:	10bfe004 	addi	r2,r2,-128
  80142c:	10000326 	beq	r2,zero,80143c <tick+0xcc4>
         AEI = 0;
  801430:	d0276985 	stb	zero,-25178(gp)
         AEI_p = 1;
  801434:	00800044 	movi	r2,1
  801438:	d0a77f45 	stb	r2,-25091(gp)
      }
      g8 =(g4b&&(!(_cg4)));
  80143c:	d0a78743 	ldbu	r2,-25059(gp)
  801440:	10803fcc 	andi	r2,r2,255
  801444:	1080201c 	xori	r2,r2,128
  801448:	10bfe004 	addi	r2,r2,-128
  80144c:	10000726 	beq	r2,zero,80146c <tick+0xcf4>
  801450:	d0a785c3 	ldbu	r2,-25065(gp)
  801454:	10803fcc 	andi	r2,r2,255
  801458:	1080201c 	xori	r2,r2,128
  80145c:	10bfe004 	addi	r2,r2,-128
  801460:	1000021e 	bne	r2,zero,80146c <tick+0xcf4>
  801464:	00800044 	movi	r2,1
  801468:	00000106 	br	801470 <tick+0xcf8>
  80146c:	0005883a 	mov	r2,zero
  801470:	d0a77685 	stb	r2,-25126(gp)
      _cg8 =(AEI_p&(!(AVI))&(!(vs)));
  801474:	d0a75983 	ldbu	r2,-25242(gp)
  801478:	10803fcc 	andi	r2,r2,255
  80147c:	1080201c 	xori	r2,r2,128
  801480:	10bfe004 	addi	r2,r2,-128
  801484:	1005003a 	cmpeq	r2,r2,zero
  801488:	1007883a 	mov	r3,r2
  80148c:	d0a77f43 	ldbu	r2,-25091(gp)
  801490:	1884703a 	and	r2,r3,r2
  801494:	1007883a 	mov	r3,r2
  801498:	d0a76f03 	ldbu	r2,-25156(gp)
  80149c:	10803fcc 	andi	r2,r2,255
  8014a0:	1080201c 	xori	r2,r2,128
  8014a4:	10bfe004 	addi	r2,r2,-128
  8014a8:	1005003a 	cmpeq	r2,r2,zero
  8014ac:	1884703a 	and	r2,r3,r2
  8014b0:	d0a74185 	stb	r2,-25338(gp)
      g3 =(g2||(g8&&(!(_cg8))));
  8014b4:	d0a757c3 	ldbu	r2,-25249(gp)
  8014b8:	10803fcc 	andi	r2,r2,255
  8014bc:	1080201c 	xori	r2,r2,128
  8014c0:	10bfe004 	addi	r2,r2,-128
  8014c4:	10000a1e 	bne	r2,zero,8014f0 <tick+0xd78>
  8014c8:	d0a77683 	ldbu	r2,-25126(gp)
  8014cc:	10803fcc 	andi	r2,r2,255
  8014d0:	1080201c 	xori	r2,r2,128
  8014d4:	10bfe004 	addi	r2,r2,-128
  8014d8:	10000726 	beq	r2,zero,8014f8 <tick+0xd80>
  8014dc:	d0a74183 	ldbu	r2,-25338(gp)
  8014e0:	10803fcc 	andi	r2,r2,255
  8014e4:	1080201c 	xori	r2,r2,128
  8014e8:	10bfe004 	addi	r2,r2,-128
  8014ec:	1000021e 	bne	r2,zero,8014f8 <tick+0xd80>
  8014f0:	00800044 	movi	r2,1
  8014f4:	00000106 	br	8014fc <tick+0xd84>
  8014f8:	0005883a 	mov	r2,zero
  8014fc:	d0a738c5 	stb	r2,-25373(gp)
      g6 =(g5||(g7&&(!(_cg7))));
  801500:	d0a75683 	ldbu	r2,-25254(gp)
  801504:	10803fcc 	andi	r2,r2,255
  801508:	1080201c 	xori	r2,r2,128
  80150c:	10bfe004 	addi	r2,r2,-128
  801510:	10000a1e 	bne	r2,zero,80153c <tick+0xdc4>
  801514:	d0a75803 	ldbu	r2,-25248(gp)
  801518:	10803fcc 	andi	r2,r2,255
  80151c:	1080201c 	xori	r2,r2,128
  801520:	10bfe004 	addi	r2,r2,-128
  801524:	10000726 	beq	r2,zero,801544 <tick+0xdcc>
  801528:	d0a73b83 	ldbu	r2,-25362(gp)
  80152c:	10803fcc 	andi	r2,r2,255
  801530:	1080201c 	xori	r2,r2,128
  801534:	10bfe004 	addi	r2,r2,-128
  801538:	1000021e 	bne	r2,zero,801544 <tick+0xdcc>
  80153c:	00800044 	movi	r2,1
  801540:	00000106 	br	801548 <tick+0xdd0>
  801544:	0005883a 	mov	r2,zero
  801548:	d0a77845 	stb	r2,-25119(gp)
      g9 =(g8&&_cg8);
  80154c:	d0a77683 	ldbu	r2,-25126(gp)
  801550:	10803fcc 	andi	r2,r2,255
  801554:	1080201c 	xori	r2,r2,128
  801558:	10bfe004 	addi	r2,r2,-128
  80155c:	10000726 	beq	r2,zero,80157c <tick+0xe04>
  801560:	d0a74183 	ldbu	r2,-25338(gp)
  801564:	10803fcc 	andi	r2,r2,255
  801568:	1080201c 	xori	r2,r2,128
  80156c:	10bfe004 	addi	r2,r2,-128
  801570:	10000226 	beq	r2,zero,80157c <tick+0xe04>
  801574:	00800044 	movi	r2,1
  801578:	00000106 	br	801580 <tick+0xe08>
  80157c:	0005883a 	mov	r2,zero
  801580:	d0a73a85 	stb	r2,-25366(gp)
      if(g9){
  801584:	d0a73a83 	ldbu	r2,-25366(gp)
  801588:	10803fcc 	andi	r2,r2,255
  80158c:	1080201c 	xori	r2,r2,128
  801590:	10bfe004 	addi	r2,r2,-128
  801594:	10000426 	beq	r2,zero,8015a8 <tick+0xe30>
         ap_accept = 1;
  801598:	00800044 	movi	r2,1
  80159c:	d0a77485 	stb	r2,-25134(gp)
         ap = 1;
  8015a0:	00800044 	movi	r2,1
  8015a4:	d0a74cc5 	stb	r2,-25293(gp)
      }
      g10 =(g9||(g11&&(!(_cg11))));
  8015a8:	d0a73a83 	ldbu	r2,-25366(gp)
  8015ac:	10803fcc 	andi	r2,r2,255
  8015b0:	1080201c 	xori	r2,r2,128
  8015b4:	10bfe004 	addi	r2,r2,-128
  8015b8:	10000a1e 	bne	r2,zero,8015e4 <tick+0xe6c>
  8015bc:	d0a77d83 	ldbu	r2,-25098(gp)
  8015c0:	10803fcc 	andi	r2,r2,255
  8015c4:	1080201c 	xori	r2,r2,128
  8015c8:	10bfe004 	addi	r2,r2,-128
  8015cc:	10000726 	beq	r2,zero,8015ec <tick+0xe74>
  8015d0:	d0a76d83 	ldbu	r2,-25162(gp)
  8015d4:	10803fcc 	andi	r2,r2,255
  8015d8:	1080201c 	xori	r2,r2,128
  8015dc:	10bfe004 	addi	r2,r2,-128
  8015e0:	1000021e 	bne	r2,zero,8015ec <tick+0xe74>
  8015e4:	00800044 	movi	r2,1
  8015e8:	00000106 	br	8015f0 <tick+0xe78>
  8015ec:	0005883a 	mov	r2,zero
  8015f0:	d0a788c5 	stb	r2,-25053(gp)
      g20 =(g16b&&(!(_cg16)));
  8015f4:	d0a77fc3 	ldbu	r2,-25089(gp)
  8015f8:	10803fcc 	andi	r2,r2,255
  8015fc:	1080201c 	xori	r2,r2,128
  801600:	10bfe004 	addi	r2,r2,-128
  801604:	10000726 	beq	r2,zero,801624 <tick+0xeac>
  801608:	d0a75883 	ldbu	r2,-25246(gp)
  80160c:	10803fcc 	andi	r2,r2,255
  801610:	1080201c 	xori	r2,r2,128
  801614:	10bfe004 	addi	r2,r2,-128
  801618:	1000021e 	bne	r2,zero,801624 <tick+0xeac>
  80161c:	00800044 	movi	r2,1
  801620:	00000106 	br	801628 <tick+0xeb0>
  801624:	0005883a 	mov	r2,zero
  801628:	d0a76745 	stb	r2,-25187(gp)
      _cg20 =(AVI_p&(!(URI))&(!(as)));
  80162c:	d0a75383 	ldbu	r2,-25266(gp)
  801630:	10803fcc 	andi	r2,r2,255
  801634:	1080201c 	xori	r2,r2,128
  801638:	10bfe004 	addi	r2,r2,-128
  80163c:	1005003a 	cmpeq	r2,r2,zero
  801640:	1007883a 	mov	r3,r2
  801644:	d0a74bc3 	ldbu	r2,-25297(gp)
  801648:	1884703a 	and	r2,r3,r2
  80164c:	1007883a 	mov	r3,r2
  801650:	d0a76303 	ldbu	r2,-25204(gp)
  801654:	10803fcc 	andi	r2,r2,255
  801658:	1080201c 	xori	r2,r2,128
  80165c:	10bfe004 	addi	r2,r2,-128
  801660:	1005003a 	cmpeq	r2,r2,zero
  801664:	1884703a 	and	r2,r3,r2
  801668:	d0a75185 	stb	r2,-25274(gp)
      g15 =((g20&&(!(_cg20)))||g14);
  80166c:	d0a76743 	ldbu	r2,-25187(gp)
  801670:	10803fcc 	andi	r2,r2,255
  801674:	1080201c 	xori	r2,r2,128
  801678:	10bfe004 	addi	r2,r2,-128
  80167c:	10000526 	beq	r2,zero,801694 <tick+0xf1c>
  801680:	d0a75183 	ldbu	r2,-25274(gp)
  801684:	10803fcc 	andi	r2,r2,255
  801688:	1080201c 	xori	r2,r2,128
  80168c:	10bfe004 	addi	r2,r2,-128
  801690:	10000526 	beq	r2,zero,8016a8 <tick+0xf30>
  801694:	d0a75f03 	ldbu	r2,-25220(gp)
  801698:	10803fcc 	andi	r2,r2,255
  80169c:	1080201c 	xori	r2,r2,128
  8016a0:	10bfe004 	addi	r2,r2,-128
  8016a4:	10000226 	beq	r2,zero,8016b0 <tick+0xf38>
  8016a8:	00800044 	movi	r2,1
  8016ac:	00000106 	br	8016b4 <tick+0xf3c>
  8016b0:	0005883a 	mov	r2,zero
  8016b4:	d0a76605 	stb	r2,-25192(gp)
      g18 =((g19&&(!(_cg19)))||g17);
  8016b8:	d0a73303 	ldbu	r2,-25396(gp)
  8016bc:	10803fcc 	andi	r2,r2,255
  8016c0:	1080201c 	xori	r2,r2,128
  8016c4:	10bfe004 	addi	r2,r2,-128
  8016c8:	10000526 	beq	r2,zero,8016e0 <tick+0xf68>
  8016cc:	d0a77883 	ldbu	r2,-25118(gp)
  8016d0:	10803fcc 	andi	r2,r2,255
  8016d4:	1080201c 	xori	r2,r2,128
  8016d8:	10bfe004 	addi	r2,r2,-128
  8016dc:	10000526 	beq	r2,zero,8016f4 <tick+0xf7c>
  8016e0:	d0a747c3 	ldbu	r2,-25313(gp)
  8016e4:	10803fcc 	andi	r2,r2,255
  8016e8:	1080201c 	xori	r2,r2,128
  8016ec:	10bfe004 	addi	r2,r2,-128
  8016f0:	10000226 	beq	r2,zero,8016fc <tick+0xf84>
  8016f4:	00800044 	movi	r2,1
  8016f8:	00000106 	br	801700 <tick+0xf88>
  8016fc:	0005883a 	mov	r2,zero
  801700:	d0a74c85 	stb	r2,-25294(gp)
      g21 =(g20&&_cg20);
  801704:	d0a76743 	ldbu	r2,-25187(gp)
  801708:	10803fcc 	andi	r2,r2,255
  80170c:	1080201c 	xori	r2,r2,128
  801710:	10bfe004 	addi	r2,r2,-128
  801714:	10000726 	beq	r2,zero,801734 <tick+0xfbc>
  801718:	d0a75183 	ldbu	r2,-25274(gp)
  80171c:	10803fcc 	andi	r2,r2,255
  801720:	1080201c 	xori	r2,r2,128
  801724:	10bfe004 	addi	r2,r2,-128
  801728:	10000226 	beq	r2,zero,801734 <tick+0xfbc>
  80172c:	00800044 	movi	r2,1
  801730:	00000106 	br	801738 <tick+0xfc0>
  801734:	0005883a 	mov	r2,zero
  801738:	d0a75305 	stb	r2,-25268(gp)
      if(g21){
  80173c:	d0a75303 	ldbu	r2,-25268(gp)
  801740:	10803fcc 	andi	r2,r2,255
  801744:	1080201c 	xori	r2,r2,128
  801748:	10bfe004 	addi	r2,r2,-128
  80174c:	10000426 	beq	r2,zero,801760 <tick+0xfe8>
         vp_accept = 1;
  801750:	00800044 	movi	r2,1
  801754:	d0a75a45 	stb	r2,-25239(gp)
         vp = 1;
  801758:	00800044 	movi	r2,1
  80175c:	d0a76f45 	stb	r2,-25155(gp)
      }
      g22 =((g23&&(!(_cg23)))||g21);
  801760:	d0a75c43 	ldbu	r2,-25231(gp)
  801764:	10803fcc 	andi	r2,r2,255
  801768:	1080201c 	xori	r2,r2,128
  80176c:	10bfe004 	addi	r2,r2,-128
  801770:	10000526 	beq	r2,zero,801788 <tick+0x1010>
  801774:	d0a78383 	ldbu	r2,-25074(gp)
  801778:	10803fcc 	andi	r2,r2,255
  80177c:	1080201c 	xori	r2,r2,128
  801780:	10bfe004 	addi	r2,r2,-128
  801784:	10000526 	beq	r2,zero,80179c <tick+0x1024>
  801788:	d0a75303 	ldbu	r2,-25268(gp)
  80178c:	10803fcc 	andi	r2,r2,255
  801790:	1080201c 	xori	r2,r2,128
  801794:	10bfe004 	addi	r2,r2,-128
  801798:	10000226 	beq	r2,zero,8017a4 <tick+0x102c>
  80179c:	00800044 	movi	r2,1
  8017a0:	00000106 	br	8017a8 <tick+0x1030>
  8017a4:	0005883a 	mov	r2,zero
  8017a8:	d0a77e45 	stb	r2,-25095(gp)
      g27 = g26;
  8017ac:	d0a78a03 	ldbu	r2,-25048(gp)
  8017b0:	d0a73645 	stb	r2,-25383(gp)
      g34 =(PRE_g33);
  8017b4:	d0a77983 	ldbu	r2,-25114(gp)
  8017b8:	d0a75645 	stb	r2,-25255(gp)
      g34b = g34;
  8017bc:	d0a75643 	ldbu	r2,-25255(gp)
  8017c0:	d0a73b05 	stb	r2,-25364(gp)
      _cg34 =(ap_accept|as_accept);
  8017c4:	d0e77483 	ldbu	r3,-25134(gp)
  8017c8:	d0a78a43 	ldbu	r2,-25047(gp)
  8017cc:	1884b03a 	or	r2,r3,r2
  8017d0:	d0a74c45 	stb	r2,-25295(gp)
      g35 =(g34b&&_cg34);
  8017d4:	d0a73b03 	ldbu	r2,-25364(gp)
  8017d8:	10803fcc 	andi	r2,r2,255
  8017dc:	1080201c 	xori	r2,r2,128
  8017e0:	10bfe004 	addi	r2,r2,-128
  8017e4:	10000726 	beq	r2,zero,801804 <tick+0x108c>
  8017e8:	d0a74c43 	ldbu	r2,-25295(gp)
  8017ec:	10803fcc 	andi	r2,r2,255
  8017f0:	1080201c 	xori	r2,r2,128
  8017f4:	10bfe004 	addi	r2,r2,-128
  8017f8:	10000226 	beq	r2,zero,801804 <tick+0x108c>
  8017fc:	00800044 	movi	r2,1
  801800:	00000106 	br	801808 <tick+0x1090>
  801804:	0005883a 	mov	r2,zero
  801808:	d0a76585 	stb	r2,-25194(gp)
      if(g35){
  80180c:	d0a76583 	ldbu	r2,-25194(gp)
  801810:	10803fcc 	andi	r2,r2,255
  801814:	1080201c 	xori	r2,r2,128
  801818:	10bfe004 	addi	r2,r2,-128
  80181c:	10000226 	beq	r2,zero,801828 <tick+0x10b0>
         _trig = 1;
  801820:	00800044 	movi	r2,1
  801824:	d0a75345 	stb	r2,-25267(gp)
      }
      g28 =(g31||g27);
  801828:	d0a74883 	ldbu	r2,-25310(gp)
  80182c:	10803fcc 	andi	r2,r2,255
  801830:	1080201c 	xori	r2,r2,128
  801834:	10bfe004 	addi	r2,r2,-128
  801838:	1000051e 	bne	r2,zero,801850 <tick+0x10d8>
  80183c:	d0a73643 	ldbu	r2,-25383(gp)
  801840:	10803fcc 	andi	r2,r2,255
  801844:	1080201c 	xori	r2,r2,128
  801848:	10bfe004 	addi	r2,r2,-128
  80184c:	10000226 	beq	r2,zero,801858 <tick+0x10e0>
  801850:	00800044 	movi	r2,1
  801854:	00000106 	br	80185c <tick+0x10e4>
  801858:	0005883a 	mov	r2,zero
  80185c:	d0a77ec5 	stb	r2,-25093(gp)
      _cg28 = _trig;
  801860:	d0a75343 	ldbu	r2,-25267(gp)
  801864:	d0a75285 	stb	r2,-25270(gp)
      g29 =(g28&&_cg28);
  801868:	d0a77ec3 	ldbu	r2,-25093(gp)
  80186c:	10803fcc 	andi	r2,r2,255
  801870:	1080201c 	xori	r2,r2,128
  801874:	10bfe004 	addi	r2,r2,-128
  801878:	10000726 	beq	r2,zero,801898 <tick+0x1120>
  80187c:	d0a75283 	ldbu	r2,-25270(gp)
  801880:	10803fcc 	andi	r2,r2,255
  801884:	1080201c 	xori	r2,r2,128
  801888:	10bfe004 	addi	r2,r2,-128
  80188c:	10000226 	beq	r2,zero,801898 <tick+0x1120>
  801890:	00800044 	movi	r2,1
  801894:	00000106 	br	80189c <tick+0x1124>
  801898:	0005883a 	mov	r2,zero
  80189c:	d0a78585 	stb	r2,-25066(gp)
      g30 =(g28&&(!(_cg28)));
  8018a0:	d0a77ec3 	ldbu	r2,-25093(gp)
  8018a4:	10803fcc 	andi	r2,r2,255
  8018a8:	1080201c 	xori	r2,r2,128
  8018ac:	10bfe004 	addi	r2,r2,-128
  8018b0:	10000726 	beq	r2,zero,8018d0 <tick+0x1158>
  8018b4:	d0a75283 	ldbu	r2,-25270(gp)
  8018b8:	10803fcc 	andi	r2,r2,255
  8018bc:	1080201c 	xori	r2,r2,128
  8018c0:	10bfe004 	addi	r2,r2,-128
  8018c4:	1000021e 	bne	r2,zero,8018d0 <tick+0x1158>
  8018c8:	00800044 	movi	r2,1
  8018cc:	00000106 	br	8018d4 <tick+0x115c>
  8018d0:	0005883a 	mov	r2,zero
  8018d4:	d0a77b85 	stb	r2,-25106(gp)
      g32 = g26;
  8018d8:	d0a78a03 	ldbu	r2,-25048(gp)
  8018dc:	d0a78145 	stb	r2,-25083(gp)
      g33 =(g32||(g34b&&(!(_cg34))));
  8018e0:	d0a78143 	ldbu	r2,-25083(gp)
  8018e4:	10803fcc 	andi	r2,r2,255
  8018e8:	1080201c 	xori	r2,r2,128
  8018ec:	10bfe004 	addi	r2,r2,-128
  8018f0:	10000a1e 	bne	r2,zero,80191c <tick+0x11a4>
  8018f4:	d0a73b03 	ldbu	r2,-25364(gp)
  8018f8:	10803fcc 	andi	r2,r2,255
  8018fc:	1080201c 	xori	r2,r2,128
  801900:	10bfe004 	addi	r2,r2,-128
  801904:	10000726 	beq	r2,zero,801924 <tick+0x11ac>
  801908:	d0a74c43 	ldbu	r2,-25295(gp)
  80190c:	10803fcc 	andi	r2,r2,255
  801910:	1080201c 	xori	r2,r2,128
  801914:	10bfe004 	addi	r2,r2,-128
  801918:	1000021e 	bne	r2,zero,801924 <tick+0x11ac>
  80191c:	00800044 	movi	r2,1
  801920:	00000106 	br	801928 <tick+0x11b0>
  801924:	0005883a 	mov	r2,zero
  801928:	d0a762c5 	stb	r2,-25205(gp)
      g29_e1 =(!(g30));
  80192c:	d0a77b83 	ldbu	r2,-25106(gp)
  801930:	10803fcc 	andi	r2,r2,255
  801934:	1080201c 	xori	r2,r2,128
  801938:	10bfe004 	addi	r2,r2,-128
  80193c:	1005003a 	cmpeq	r2,r2,zero
  801940:	d0a77945 	stb	r2,-25115(gp)
      g35_e2 =(!(g33));
  801944:	d0a762c3 	ldbu	r2,-25205(gp)
  801948:	10803fcc 	andi	r2,r2,255
  80194c:	1080201c 	xori	r2,r2,128
  801950:	10bfe004 	addi	r2,r2,-128
  801954:	1005003a 	cmpeq	r2,r2,zero
  801958:	d0a74385 	stb	r2,-25330(gp)
      g36 =((g29_e1||g29)&&(g35_e2||g35)&&(g29||g35));
  80195c:	d0a77943 	ldbu	r2,-25115(gp)
  801960:	10803fcc 	andi	r2,r2,255
  801964:	1080201c 	xori	r2,r2,128
  801968:	10bfe004 	addi	r2,r2,-128
  80196c:	1000051e 	bne	r2,zero,801984 <tick+0x120c>
  801970:	d0a78583 	ldbu	r2,-25066(gp)
  801974:	10803fcc 	andi	r2,r2,255
  801978:	1080201c 	xori	r2,r2,128
  80197c:	10bfe004 	addi	r2,r2,-128
  801980:	10001626 	beq	r2,zero,8019dc <tick+0x1264>
  801984:	d0a74383 	ldbu	r2,-25330(gp)
  801988:	10803fcc 	andi	r2,r2,255
  80198c:	1080201c 	xori	r2,r2,128
  801990:	10bfe004 	addi	r2,r2,-128
  801994:	1000051e 	bne	r2,zero,8019ac <tick+0x1234>
  801998:	d0a76583 	ldbu	r2,-25194(gp)
  80199c:	10803fcc 	andi	r2,r2,255
  8019a0:	1080201c 	xori	r2,r2,128
  8019a4:	10bfe004 	addi	r2,r2,-128
  8019a8:	10000c26 	beq	r2,zero,8019dc <tick+0x1264>
  8019ac:	d0a78583 	ldbu	r2,-25066(gp)
  8019b0:	10803fcc 	andi	r2,r2,255
  8019b4:	1080201c 	xori	r2,r2,128
  8019b8:	10bfe004 	addi	r2,r2,-128
  8019bc:	1000051e 	bne	r2,zero,8019d4 <tick+0x125c>
  8019c0:	d0a76583 	ldbu	r2,-25194(gp)
  8019c4:	10803fcc 	andi	r2,r2,255
  8019c8:	1080201c 	xori	r2,r2,128
  8019cc:	10bfe004 	addi	r2,r2,-128
  8019d0:	10000226 	beq	r2,zero,8019dc <tick+0x1264>
  8019d4:	00800044 	movi	r2,1
  8019d8:	00000106 	br	8019e0 <tick+0x1268>
  8019dc:	0005883a 	mov	r2,zero
  8019e0:	d0a76e05 	stb	r2,-25160(gp)
      g37 =((g38&&(!(_cg38)))||g36);
  8019e4:	d0a75043 	ldbu	r2,-25279(gp)
  8019e8:	10803fcc 	andi	r2,r2,255
  8019ec:	1080201c 	xori	r2,r2,128
  8019f0:	10bfe004 	addi	r2,r2,-128
  8019f4:	10000526 	beq	r2,zero,801a0c <tick+0x1294>
  8019f8:	d0a765c3 	ldbu	r2,-25193(gp)
  8019fc:	10803fcc 	andi	r2,r2,255
  801a00:	1080201c 	xori	r2,r2,128
  801a04:	10bfe004 	addi	r2,r2,-128
  801a08:	10000526 	beq	r2,zero,801a20 <tick+0x12a8>
  801a0c:	d0a76e03 	ldbu	r2,-25160(gp)
  801a10:	10803fcc 	andi	r2,r2,255
  801a14:	1080201c 	xori	r2,r2,128
  801a18:	10bfe004 	addi	r2,r2,-128
  801a1c:	10000226 	beq	r2,zero,801a28 <tick+0x12b0>
  801a20:	00800044 	movi	r2,1
  801a24:	00000106 	br	801a2c <tick+0x12b4>
  801a28:	0005883a 	mov	r2,zero
  801a2c:	d0a748c5 	stb	r2,-25309(gp)
      g40 =(g39||(g44&&(!(_cg44))));
  801a30:	d0a78503 	ldbu	r2,-25068(gp)
  801a34:	10803fcc 	andi	r2,r2,255
  801a38:	1080201c 	xori	r2,r2,128
  801a3c:	10bfe004 	addi	r2,r2,-128
  801a40:	10000a1e 	bne	r2,zero,801a6c <tick+0x12f4>
  801a44:	d0a740c3 	ldbu	r2,-25341(gp)
  801a48:	10803fcc 	andi	r2,r2,255
  801a4c:	1080201c 	xori	r2,r2,128
  801a50:	10bfe004 	addi	r2,r2,-128
  801a54:	10000726 	beq	r2,zero,801a74 <tick+0x12fc>
  801a58:	d0a75cc3 	ldbu	r2,-25229(gp)
  801a5c:	10803fcc 	andi	r2,r2,255
  801a60:	1080201c 	xori	r2,r2,128
  801a64:	10bfe004 	addi	r2,r2,-128
  801a68:	1000021e 	bne	r2,zero,801a74 <tick+0x12fc>
  801a6c:	00800044 	movi	r2,1
  801a70:	00000106 	br	801a78 <tick+0x1300>
  801a74:	0005883a 	mov	r2,zero
  801a78:	d0a73185 	stb	r2,-25402(gp)
      g60 =(PRE_g59);
  801a7c:	d0a77f83 	ldbu	r2,-25090(gp)
  801a80:	d0a76785 	stb	r2,-25186(gp)
      g60b = g60;
  801a84:	d0a76783 	ldbu	r2,-25186(gp)
  801a88:	d0a73445 	stb	r2,-25391(gp)
      _cg60 =(vp_accept|vs_accept);
  801a8c:	d0e75a43 	ldbu	r3,-25239(gp)
  801a90:	d0a769c3 	ldbu	r2,-25177(gp)
  801a94:	1884b03a 	or	r2,r3,r2
  801a98:	d0a763c5 	stb	r2,-25201(gp)
      g59 =(g58||(g60b&&(!(_cg60))));
  801a9c:	d0a77c43 	ldbu	r2,-25103(gp)
  801aa0:	10803fcc 	andi	r2,r2,255
  801aa4:	1080201c 	xori	r2,r2,128
  801aa8:	10bfe004 	addi	r2,r2,-128
  801aac:	10000a1e 	bne	r2,zero,801ad8 <tick+0x1360>
  801ab0:	d0a73443 	ldbu	r2,-25391(gp)
  801ab4:	10803fcc 	andi	r2,r2,255
  801ab8:	1080201c 	xori	r2,r2,128
  801abc:	10bfe004 	addi	r2,r2,-128
  801ac0:	10000726 	beq	r2,zero,801ae0 <tick+0x1368>
  801ac4:	d0a763c3 	ldbu	r2,-25201(gp)
  801ac8:	10803fcc 	andi	r2,r2,255
  801acc:	1080201c 	xori	r2,r2,128
  801ad0:	10bfe004 	addi	r2,r2,-128
  801ad4:	1000021e 	bne	r2,zero,801ae0 <tick+0x1368>
  801ad8:	00800044 	movi	r2,1
  801adc:	00000106 	br	801ae4 <tick+0x136c>
  801ae0:	0005883a 	mov	r2,zero
  801ae4:	d0a75b45 	stb	r2,-25235(gp)
      g61 =((g60b&&_cg60)||(g62&&(!(_cg62))));
  801ae8:	d0a73443 	ldbu	r2,-25391(gp)
  801aec:	10803fcc 	andi	r2,r2,255
  801af0:	1080201c 	xori	r2,r2,128
  801af4:	10bfe004 	addi	r2,r2,-128
  801af8:	10000526 	beq	r2,zero,801b10 <tick+0x1398>
  801afc:	d0a763c3 	ldbu	r2,-25201(gp)
  801b00:	10803fcc 	andi	r2,r2,255
  801b04:	1080201c 	xori	r2,r2,128
  801b08:	10bfe004 	addi	r2,r2,-128
  801b0c:	10000a1e 	bne	r2,zero,801b38 <tick+0x13c0>
  801b10:	d0a74983 	ldbu	r2,-25306(gp)
  801b14:	10803fcc 	andi	r2,r2,255
  801b18:	1080201c 	xori	r2,r2,128
  801b1c:	10bfe004 	addi	r2,r2,-128
  801b20:	10000726 	beq	r2,zero,801b40 <tick+0x13c8>
  801b24:	d0a78903 	ldbu	r2,-25052(gp)
  801b28:	10803fcc 	andi	r2,r2,255
  801b2c:	1080201c 	xori	r2,r2,128
  801b30:	10bfe004 	addi	r2,r2,-128
  801b34:	1000021e 	bne	r2,zero,801b40 <tick+0x13c8>
  801b38:	00800044 	movi	r2,1
  801b3c:	00000106 	br	801b44 <tick+0x13cc>
  801b40:	0005883a 	mov	r2,zero
  801b44:	d0a74245 	stb	r2,-25335(gp)
      g64 =((g67&&(!(_cg67)))||g63);
  801b48:	d0a78603 	ldbu	r2,-25064(gp)
  801b4c:	10803fcc 	andi	r2,r2,255
  801b50:	1080201c 	xori	r2,r2,128
  801b54:	10bfe004 	addi	r2,r2,-128
  801b58:	10000526 	beq	r2,zero,801b70 <tick+0x13f8>
  801b5c:	d0a78783 	ldbu	r2,-25058(gp)
  801b60:	10803fcc 	andi	r2,r2,255
  801b64:	1080201c 	xori	r2,r2,128
  801b68:	10bfe004 	addi	r2,r2,-128
  801b6c:	10000526 	beq	r2,zero,801b84 <tick+0x140c>
  801b70:	d0a76703 	ldbu	r2,-25188(gp)
  801b74:	10803fcc 	andi	r2,r2,255
  801b78:	1080201c 	xori	r2,r2,128
  801b7c:	10bfe004 	addi	r2,r2,-128
  801b80:	10000226 	beq	r2,zero,801b8c <tick+0x1414>
  801b84:	00800044 	movi	r2,1
  801b88:	00000106 	br	801b90 <tick+0x1418>
  801b8c:	0005883a 	mov	r2,zero
  801b90:	d0a752c5 	stb	r2,-25269(gp)
      g69 = g0;
  801b94:	d0a77ac3 	ldbu	r2,-25109(gp)
  801b98:	d0a789c5 	stb	r2,-25049(gp)
      g87 =(g85&&(!(_cg85)));
  801b9c:	d0a739c3 	ldbu	r2,-25369(gp)
  801ba0:	10803fcc 	andi	r2,r2,255
  801ba4:	1080201c 	xori	r2,r2,128
  801ba8:	10bfe004 	addi	r2,r2,-128
  801bac:	10000726 	beq	r2,zero,801bcc <tick+0x1454>
  801bb0:	d0a74783 	ldbu	r2,-25314(gp)
  801bb4:	10803fcc 	andi	r2,r2,255
  801bb8:	1080201c 	xori	r2,r2,128
  801bbc:	10bfe004 	addi	r2,r2,-128
  801bc0:	1000021e 	bne	r2,zero,801bcc <tick+0x1454>
  801bc4:	00800044 	movi	r2,1
  801bc8:	00000106 	br	801bd0 <tick+0x1458>
  801bcc:	0005883a 	mov	r2,zero
  801bd0:	d0a74085 	stb	r2,-25342(gp)
      _cg87 =(t_vrp >= (to_vrp - 2));
  801bd4:	d0a78c17 	ldw	r2,-25040(gp)
  801bd8:	10bfff84 	addi	r2,r2,-2
  801bdc:	d0e74f17 	ldw	r3,-25284(gp)
  801be0:	1884403a 	cmpge	r2,r3,r2
  801be4:	d0a75d05 	stb	r2,-25228(gp)
      g70 =(g69||(g87&&_cg87));
  801be8:	d0a789c3 	ldbu	r2,-25049(gp)
  801bec:	10803fcc 	andi	r2,r2,255
  801bf0:	1080201c 	xori	r2,r2,128
  801bf4:	10bfe004 	addi	r2,r2,-128
  801bf8:	10000a1e 	bne	r2,zero,801c24 <tick+0x14ac>
  801bfc:	d0a74083 	ldbu	r2,-25342(gp)
  801c00:	10803fcc 	andi	r2,r2,255
  801c04:	1080201c 	xori	r2,r2,128
  801c08:	10bfe004 	addi	r2,r2,-128
  801c0c:	10000726 	beq	r2,zero,801c2c <tick+0x14b4>
  801c10:	d0a75d03 	ldbu	r2,-25228(gp)
  801c14:	10803fcc 	andi	r2,r2,255
  801c18:	1080201c 	xori	r2,r2,128
  801c1c:	10bfe004 	addi	r2,r2,-128
  801c20:	10000226 	beq	r2,zero,801c2c <tick+0x14b4>
  801c24:	00800044 	movi	r2,1
  801c28:	00000106 	br	801c30 <tick+0x14b8>
  801c2c:	0005883a 	mov	r2,zero
  801c30:	d0a77705 	stb	r2,-25124(gp)
      if(g70){
  801c34:	d0a77703 	ldbu	r2,-25124(gp)
  801c38:	10803fcc 	andi	r2,r2,255
  801c3c:	1080201c 	xori	r2,r2,128
  801c40:	10bfe004 	addi	r2,r2,-128
  801c44:	10000226 	beq	r2,zero,801c50 <tick+0x14d8>
         t_vrp = 0;
  801c48:	d0274f15 	stw	zero,-25284(gp)
         _trig3 = 0;
  801c4c:	d0274b45 	stb	zero,-25299(gp)
      }
      g71 = g70;
  801c50:	d0a77703 	ldbu	r2,-25124(gp)
  801c54:	d0a742c5 	stb	r2,-25333(gp)
      g78 =(PRE_g77);
  801c58:	d0a74803 	ldbu	r2,-25312(gp)
  801c5c:	d0a76285 	stb	r2,-25206(gp)
      g78b = g78;
  801c60:	d0a76283 	ldbu	r2,-25206(gp)
  801c64:	d0a73885 	stb	r2,-25374(gp)
      _cg78 =(vp_accept|vs_accept);
  801c68:	d0e75a43 	ldbu	r3,-25239(gp)
  801c6c:	d0a769c3 	ldbu	r2,-25177(gp)
  801c70:	1884b03a 	or	r2,r3,r2
  801c74:	d0a77245 	stb	r2,-25143(gp)
      g79 =(g78b&&_cg78);
  801c78:	d0a73883 	ldbu	r2,-25374(gp)
  801c7c:	10803fcc 	andi	r2,r2,255
  801c80:	1080201c 	xori	r2,r2,128
  801c84:	10bfe004 	addi	r2,r2,-128
  801c88:	10000726 	beq	r2,zero,801ca8 <tick+0x1530>
  801c8c:	d0a77243 	ldbu	r2,-25143(gp)
  801c90:	10803fcc 	andi	r2,r2,255
  801c94:	1080201c 	xori	r2,r2,128
  801c98:	10bfe004 	addi	r2,r2,-128
  801c9c:	10000226 	beq	r2,zero,801ca8 <tick+0x1530>
  801ca0:	00800044 	movi	r2,1
  801ca4:	00000106 	br	801cac <tick+0x1534>
  801ca8:	0005883a 	mov	r2,zero
  801cac:	d0a75605 	stb	r2,-25256(gp)
      if(g79){
  801cb0:	d0a75603 	ldbu	r2,-25256(gp)
  801cb4:	10803fcc 	andi	r2,r2,255
  801cb8:	1080201c 	xori	r2,r2,128
  801cbc:	10bfe004 	addi	r2,r2,-128
  801cc0:	10000226 	beq	r2,zero,801ccc <tick+0x1554>
         _trig3 = 1;
  801cc4:	00800044 	movi	r2,1
  801cc8:	d0a74b45 	stb	r2,-25299(gp)
      }
      g72 =(g71||g75);
  801ccc:	d0a742c3 	ldbu	r2,-25333(gp)
  801cd0:	10803fcc 	andi	r2,r2,255
  801cd4:	1080201c 	xori	r2,r2,128
  801cd8:	10bfe004 	addi	r2,r2,-128
  801cdc:	1000051e 	bne	r2,zero,801cf4 <tick+0x157c>
  801ce0:	d0a77b43 	ldbu	r2,-25107(gp)
  801ce4:	10803fcc 	andi	r2,r2,255
  801ce8:	1080201c 	xori	r2,r2,128
  801cec:	10bfe004 	addi	r2,r2,-128
  801cf0:	10000226 	beq	r2,zero,801cfc <tick+0x1584>
  801cf4:	00800044 	movi	r2,1
  801cf8:	00000106 	br	801d00 <tick+0x1588>
  801cfc:	0005883a 	mov	r2,zero
  801d00:	d0a778c5 	stb	r2,-25117(gp)
      _cg72 = _trig3;
  801d04:	d0a74b43 	ldbu	r2,-25299(gp)
  801d08:	d0a78a85 	stb	r2,-25046(gp)
      g73 =(g72&&_cg72);
  801d0c:	d0a778c3 	ldbu	r2,-25117(gp)
  801d10:	10803fcc 	andi	r2,r2,255
  801d14:	1080201c 	xori	r2,r2,128
  801d18:	10bfe004 	addi	r2,r2,-128
  801d1c:	10000726 	beq	r2,zero,801d3c <tick+0x15c4>
  801d20:	d0a78a83 	ldbu	r2,-25046(gp)
  801d24:	10803fcc 	andi	r2,r2,255
  801d28:	1080201c 	xori	r2,r2,128
  801d2c:	10bfe004 	addi	r2,r2,-128
  801d30:	10000226 	beq	r2,zero,801d3c <tick+0x15c4>
  801d34:	00800044 	movi	r2,1
  801d38:	00000106 	br	801d40 <tick+0x15c8>
  801d3c:	0005883a 	mov	r2,zero
  801d40:	d0a77f05 	stb	r2,-25092(gp)
      g74 =(g72&&(!(_cg72)));
  801d44:	d0a778c3 	ldbu	r2,-25117(gp)
  801d48:	10803fcc 	andi	r2,r2,255
  801d4c:	1080201c 	xori	r2,r2,128
  801d50:	10bfe004 	addi	r2,r2,-128
  801d54:	10000726 	beq	r2,zero,801d74 <tick+0x15fc>
  801d58:	d0a78a83 	ldbu	r2,-25046(gp)
  801d5c:	10803fcc 	andi	r2,r2,255
  801d60:	1080201c 	xori	r2,r2,128
  801d64:	10bfe004 	addi	r2,r2,-128
  801d68:	1000021e 	bne	r2,zero,801d74 <tick+0x15fc>
  801d6c:	00800044 	movi	r2,1
  801d70:	00000106 	br	801d78 <tick+0x1600>
  801d74:	0005883a 	mov	r2,zero
  801d78:	d0a78d05 	stb	r2,-25036(gp)
      g76 = g70;
  801d7c:	d0a77703 	ldbu	r2,-25124(gp)
  801d80:	d0a74845 	stb	r2,-25311(gp)
      g77 =(g76||(g78b&&(!(_cg78))));
  801d84:	d0a74843 	ldbu	r2,-25311(gp)
  801d88:	10803fcc 	andi	r2,r2,255
  801d8c:	1080201c 	xori	r2,r2,128
  801d90:	10bfe004 	addi	r2,r2,-128
  801d94:	10000a1e 	bne	r2,zero,801dc0 <tick+0x1648>
  801d98:	d0a73883 	ldbu	r2,-25374(gp)
  801d9c:	10803fcc 	andi	r2,r2,255
  801da0:	1080201c 	xori	r2,r2,128
  801da4:	10bfe004 	addi	r2,r2,-128
  801da8:	10000726 	beq	r2,zero,801dc8 <tick+0x1650>
  801dac:	d0a77243 	ldbu	r2,-25143(gp)
  801db0:	10803fcc 	andi	r2,r2,255
  801db4:	1080201c 	xori	r2,r2,128
  801db8:	10bfe004 	addi	r2,r2,-128
  801dbc:	1000021e 	bne	r2,zero,801dc8 <tick+0x1650>
  801dc0:	00800044 	movi	r2,1
  801dc4:	00000106 	br	801dcc <tick+0x1654>
  801dc8:	0005883a 	mov	r2,zero
  801dcc:	d0a78105 	stb	r2,-25084(gp)
      g73_e1 =(!(g74));
  801dd0:	d0a78d03 	ldbu	r2,-25036(gp)
  801dd4:	10803fcc 	andi	r2,r2,255
  801dd8:	1080201c 	xori	r2,r2,128
  801ddc:	10bfe004 	addi	r2,r2,-128
  801de0:	1005003a 	cmpeq	r2,r2,zero
  801de4:	d0a74d45 	stb	r2,-25291(gp)
      g79_e2 =(!(g77));
  801de8:	d0a78103 	ldbu	r2,-25084(gp)
  801dec:	10803fcc 	andi	r2,r2,255
  801df0:	1080201c 	xori	r2,r2,128
  801df4:	10bfe004 	addi	r2,r2,-128
  801df8:	1005003a 	cmpeq	r2,r2,zero
  801dfc:	d0a75d85 	stb	r2,-25226(gp)
      g80 =((g73_e1||g73)&&(g79_e2||g79)&&(g73||g79));
  801e00:	d0a74d43 	ldbu	r2,-25291(gp)
  801e04:	10803fcc 	andi	r2,r2,255
  801e08:	1080201c 	xori	r2,r2,128
  801e0c:	10bfe004 	addi	r2,r2,-128
  801e10:	1000051e 	bne	r2,zero,801e28 <tick+0x16b0>
  801e14:	d0a77f03 	ldbu	r2,-25092(gp)
  801e18:	10803fcc 	andi	r2,r2,255
  801e1c:	1080201c 	xori	r2,r2,128
  801e20:	10bfe004 	addi	r2,r2,-128
  801e24:	10001626 	beq	r2,zero,801e80 <tick+0x1708>
  801e28:	d0a75d83 	ldbu	r2,-25226(gp)
  801e2c:	10803fcc 	andi	r2,r2,255
  801e30:	1080201c 	xori	r2,r2,128
  801e34:	10bfe004 	addi	r2,r2,-128
  801e38:	1000051e 	bne	r2,zero,801e50 <tick+0x16d8>
  801e3c:	d0a75603 	ldbu	r2,-25256(gp)
  801e40:	10803fcc 	andi	r2,r2,255
  801e44:	1080201c 	xori	r2,r2,128
  801e48:	10bfe004 	addi	r2,r2,-128
  801e4c:	10000c26 	beq	r2,zero,801e80 <tick+0x1708>
  801e50:	d0a77f03 	ldbu	r2,-25092(gp)
  801e54:	10803fcc 	andi	r2,r2,255
  801e58:	1080201c 	xori	r2,r2,128
  801e5c:	10bfe004 	addi	r2,r2,-128
  801e60:	1000051e 	bne	r2,zero,801e78 <tick+0x1700>
  801e64:	d0a75603 	ldbu	r2,-25256(gp)
  801e68:	10803fcc 	andi	r2,r2,255
  801e6c:	1080201c 	xori	r2,r2,128
  801e70:	10bfe004 	addi	r2,r2,-128
  801e74:	10000226 	beq	r2,zero,801e80 <tick+0x1708>
  801e78:	00800044 	movi	r2,1
  801e7c:	00000106 	br	801e84 <tick+0x170c>
  801e80:	0005883a 	mov	r2,zero
  801e84:	d0a75905 	stb	r2,-25244(gp)
      g81 =(g80||(g82&&(!(_cg82))));
  801e88:	d0a75903 	ldbu	r2,-25244(gp)
  801e8c:	10803fcc 	andi	r2,r2,255
  801e90:	1080201c 	xori	r2,r2,128
  801e94:	10bfe004 	addi	r2,r2,-128
  801e98:	10000a1e 	bne	r2,zero,801ec4 <tick+0x174c>
  801e9c:	d0a74443 	ldbu	r2,-25327(gp)
  801ea0:	10803fcc 	andi	r2,r2,255
  801ea4:	1080201c 	xori	r2,r2,128
  801ea8:	10bfe004 	addi	r2,r2,-128
  801eac:	10000726 	beq	r2,zero,801ecc <tick+0x1754>
  801eb0:	d0a75203 	ldbu	r2,-25272(gp)
  801eb4:	10803fcc 	andi	r2,r2,255
  801eb8:	1080201c 	xori	r2,r2,128
  801ebc:	10bfe004 	addi	r2,r2,-128
  801ec0:	1000021e 	bne	r2,zero,801ecc <tick+0x1754>
  801ec4:	00800044 	movi	r2,1
  801ec8:	00000106 	br	801ed0 <tick+0x1758>
  801ecc:	0005883a 	mov	r2,zero
  801ed0:	d0a77905 	stb	r2,-25116(gp)
      g84 =(g83||(g87&&(!(_cg87))));
  801ed4:	d0a73143 	ldbu	r2,-25403(gp)
  801ed8:	10803fcc 	andi	r2,r2,255
  801edc:	1080201c 	xori	r2,r2,128
  801ee0:	10bfe004 	addi	r2,r2,-128
  801ee4:	10000a1e 	bne	r2,zero,801f10 <tick+0x1798>
  801ee8:	d0a74083 	ldbu	r2,-25342(gp)
  801eec:	10803fcc 	andi	r2,r2,255
  801ef0:	1080201c 	xori	r2,r2,128
  801ef4:	10bfe004 	addi	r2,r2,-128
  801ef8:	10000726 	beq	r2,zero,801f18 <tick+0x17a0>
  801efc:	d0a75d03 	ldbu	r2,-25228(gp)
  801f00:	10803fcc 	andi	r2,r2,255
  801f04:	1080201c 	xori	r2,r2,128
  801f08:	10bfe004 	addi	r2,r2,-128
  801f0c:	1000021e 	bne	r2,zero,801f18 <tick+0x17a0>
  801f10:	00800044 	movi	r2,1
  801f14:	00000106 	br	801f1c <tick+0x17a4>
  801f18:	0005883a 	mov	r2,zero
  801f1c:	d0a749c5 	stb	r2,-25305(gp)
      g89 = g0;
  801f20:	d0a77ac3 	ldbu	r2,-25109(gp)
  801f24:	d0a76e45 	stb	r2,-25159(gp)
      g111 =(PRE_g110);
  801f28:	d0a779c3 	ldbu	r2,-25113(gp)
  801f2c:	d0a73385 	stb	r2,-25394(gp)
      g111b = g111;
  801f30:	d0a73383 	ldbu	r2,-25394(gp)
  801f34:	d0a75c85 	stb	r2,-25230(gp)
      _cg111 = as_accept;
  801f38:	d0a78a43 	ldbu	r2,-25047(gp)
  801f3c:	d0a75005 	stb	r2,-25280(gp)
      g112 =(g111b&&(!(_cg111)));
  801f40:	d0a75c83 	ldbu	r2,-25230(gp)
  801f44:	10803fcc 	andi	r2,r2,255
  801f48:	1080201c 	xori	r2,r2,128
  801f4c:	10bfe004 	addi	r2,r2,-128
  801f50:	10000726 	beq	r2,zero,801f70 <tick+0x17f8>
  801f54:	d0a75003 	ldbu	r2,-25280(gp)
  801f58:	10803fcc 	andi	r2,r2,255
  801f5c:	1080201c 	xori	r2,r2,128
  801f60:	10bfe004 	addi	r2,r2,-128
  801f64:	1000021e 	bne	r2,zero,801f70 <tick+0x17f8>
  801f68:	00800044 	movi	r2,1
  801f6c:	00000106 	br	801f74 <tick+0x17fc>
  801f70:	0005883a 	mov	r2,zero
  801f74:	d0a73845 	stb	r2,-25375(gp)
      _cg112 =(!(as_accept));
  801f78:	d0a78a43 	ldbu	r2,-25047(gp)
  801f7c:	10803fcc 	andi	r2,r2,255
  801f80:	1080201c 	xori	r2,r2,128
  801f84:	10bfe004 	addi	r2,r2,-128
  801f88:	1005003a 	cmpeq	r2,r2,zero
  801f8c:	d0a774c5 	stb	r2,-25133(gp)
      g90 =((g107&&_cg107)||(g112&&_cg112)||g89);
  801f90:	d0a77143 	ldbu	r2,-25147(gp)
  801f94:	10803fcc 	andi	r2,r2,255
  801f98:	1080201c 	xori	r2,r2,128
  801f9c:	10bfe004 	addi	r2,r2,-128
  801fa0:	10000526 	beq	r2,zero,801fb8 <tick+0x1840>
  801fa4:	d0a75403 	ldbu	r2,-25264(gp)
  801fa8:	10803fcc 	andi	r2,r2,255
  801fac:	1080201c 	xori	r2,r2,128
  801fb0:	10bfe004 	addi	r2,r2,-128
  801fb4:	10000f1e 	bne	r2,zero,801ff4 <tick+0x187c>
  801fb8:	d0a73843 	ldbu	r2,-25375(gp)
  801fbc:	10803fcc 	andi	r2,r2,255
  801fc0:	1080201c 	xori	r2,r2,128
  801fc4:	10bfe004 	addi	r2,r2,-128
  801fc8:	10000526 	beq	r2,zero,801fe0 <tick+0x1868>
  801fcc:	d0a774c3 	ldbu	r2,-25133(gp)
  801fd0:	10803fcc 	andi	r2,r2,255
  801fd4:	1080201c 	xori	r2,r2,128
  801fd8:	10bfe004 	addi	r2,r2,-128
  801fdc:	1000051e 	bne	r2,zero,801ff4 <tick+0x187c>
  801fe0:	d0a76e43 	ldbu	r2,-25159(gp)
  801fe4:	10803fcc 	andi	r2,r2,255
  801fe8:	1080201c 	xori	r2,r2,128
  801fec:	10bfe004 	addi	r2,r2,-128
  801ff0:	10000226 	beq	r2,zero,801ffc <tick+0x1884>
  801ff4:	00800044 	movi	r2,1
  801ff8:	00000106 	br	802000 <tick+0x1888>
  801ffc:	0005883a 	mov	r2,zero
  802000:	d0a76645 	stb	r2,-25191(gp)
      if(g90){
  802004:	d0a76643 	ldbu	r2,-25191(gp)
  802008:	10803fcc 	andi	r2,r2,255
  80200c:	1080201c 	xori	r2,r2,128
  802010:	10bfe004 	addi	r2,r2,-128
  802014:	10000326 	beq	r2,zero,802024 <tick+0x18ac>
         AEI = 0;
  802018:	d0276985 	stb	zero,-25178(gp)
         t_aei = 0;
  80201c:	d0273f15 	stw	zero,-25348(gp)
         _trig4 = 0;
  802020:	d02759c5 	stb	zero,-25241(gp)
      }
      g91 = g90;
  802024:	d0a76643 	ldbu	r2,-25191(gp)
  802028:	d0a731c5 	stb	r2,-25401(gp)
      g98 =(PRE_g97);
  80202c:	d0a76a83 	ldbu	r2,-25174(gp)
  802030:	d0a77605 	stb	r2,-25128(gp)
      g98b = g98;
  802034:	d0a77603 	ldbu	r2,-25128(gp)
  802038:	d0a76dc5 	stb	r2,-25161(gp)
      _cg98 =(vp_accept|vs_accept);
  80203c:	d0e75a43 	ldbu	r3,-25239(gp)
  802040:	d0a769c3 	ldbu	r2,-25177(gp)
  802044:	1884b03a 	or	r2,r3,r2
  802048:	d0a744c5 	stb	r2,-25325(gp)
      g99 =(g98b&&_cg98);
  80204c:	d0a76dc3 	ldbu	r2,-25161(gp)
  802050:	10803fcc 	andi	r2,r2,255
  802054:	1080201c 	xori	r2,r2,128
  802058:	10bfe004 	addi	r2,r2,-128
  80205c:	10000726 	beq	r2,zero,80207c <tick+0x1904>
  802060:	d0a744c3 	ldbu	r2,-25325(gp)
  802064:	10803fcc 	andi	r2,r2,255
  802068:	1080201c 	xori	r2,r2,128
  80206c:	10bfe004 	addi	r2,r2,-128
  802070:	10000226 	beq	r2,zero,80207c <tick+0x1904>
  802074:	00800044 	movi	r2,1
  802078:	00000106 	br	802080 <tick+0x1908>
  80207c:	0005883a 	mov	r2,zero
  802080:	d0a75b85 	stb	r2,-25234(gp)
      if(g99){
  802084:	d0a75b83 	ldbu	r2,-25234(gp)
  802088:	10803fcc 	andi	r2,r2,255
  80208c:	1080201c 	xori	r2,r2,128
  802090:	10bfe004 	addi	r2,r2,-128
  802094:	10000226 	beq	r2,zero,8020a0 <tick+0x1928>
         _trig4 = 1;
  802098:	00800044 	movi	r2,1
  80209c:	d0a759c5 	stb	r2,-25241(gp)
      }
      g92 =(g95||g91);
  8020a0:	d0a76f83 	ldbu	r2,-25154(gp)
  8020a4:	10803fcc 	andi	r2,r2,255
  8020a8:	1080201c 	xori	r2,r2,128
  8020ac:	10bfe004 	addi	r2,r2,-128
  8020b0:	1000051e 	bne	r2,zero,8020c8 <tick+0x1950>
  8020b4:	d0a731c3 	ldbu	r2,-25401(gp)
  8020b8:	10803fcc 	andi	r2,r2,255
  8020bc:	1080201c 	xori	r2,r2,128
  8020c0:	10bfe004 	addi	r2,r2,-128
  8020c4:	10000226 	beq	r2,zero,8020d0 <tick+0x1958>
  8020c8:	00800044 	movi	r2,1
  8020cc:	00000106 	br	8020d4 <tick+0x195c>
  8020d0:	0005883a 	mov	r2,zero
  8020d4:	d0a741c5 	stb	r2,-25337(gp)
      _cg92 = _trig4;
  8020d8:	d0a759c3 	ldbu	r2,-25241(gp)
  8020dc:	d0a783c5 	stb	r2,-25073(gp)
      g93 =(g92&&_cg92);
  8020e0:	d0a741c3 	ldbu	r2,-25337(gp)
  8020e4:	10803fcc 	andi	r2,r2,255
  8020e8:	1080201c 	xori	r2,r2,128
  8020ec:	10bfe004 	addi	r2,r2,-128
  8020f0:	10000726 	beq	r2,zero,802110 <tick+0x1998>
  8020f4:	d0a783c3 	ldbu	r2,-25073(gp)
  8020f8:	10803fcc 	andi	r2,r2,255
  8020fc:	1080201c 	xori	r2,r2,128
  802100:	10bfe004 	addi	r2,r2,-128
  802104:	10000226 	beq	r2,zero,802110 <tick+0x1998>
  802108:	00800044 	movi	r2,1
  80210c:	00000106 	br	802114 <tick+0x199c>
  802110:	0005883a 	mov	r2,zero
  802114:	d0a76905 	stb	r2,-25180(gp)
      g94 =(g92&&(!(_cg92)));
  802118:	d0a741c3 	ldbu	r2,-25337(gp)
  80211c:	10803fcc 	andi	r2,r2,255
  802120:	1080201c 	xori	r2,r2,128
  802124:	10bfe004 	addi	r2,r2,-128
  802128:	10000726 	beq	r2,zero,802148 <tick+0x19d0>
  80212c:	d0a783c3 	ldbu	r2,-25073(gp)
  802130:	10803fcc 	andi	r2,r2,255
  802134:	1080201c 	xori	r2,r2,128
  802138:	10bfe004 	addi	r2,r2,-128
  80213c:	1000021e 	bne	r2,zero,802148 <tick+0x19d0>
  802140:	00800044 	movi	r2,1
  802144:	00000106 	br	80214c <tick+0x19d4>
  802148:	0005883a 	mov	r2,zero
  80214c:	d0a756c5 	stb	r2,-25253(gp)
      g96 = g90;
  802150:	d0a76643 	ldbu	r2,-25191(gp)
  802154:	d0a77005 	stb	r2,-25152(gp)
      g97 =(g96||(g98b&&(!(_cg98))));
  802158:	d0a77003 	ldbu	r2,-25152(gp)
  80215c:	10803fcc 	andi	r2,r2,255
  802160:	1080201c 	xori	r2,r2,128
  802164:	10bfe004 	addi	r2,r2,-128
  802168:	10000a1e 	bne	r2,zero,802194 <tick+0x1a1c>
  80216c:	d0a76dc3 	ldbu	r2,-25161(gp)
  802170:	10803fcc 	andi	r2,r2,255
  802174:	1080201c 	xori	r2,r2,128
  802178:	10bfe004 	addi	r2,r2,-128
  80217c:	10000726 	beq	r2,zero,80219c <tick+0x1a24>
  802180:	d0a744c3 	ldbu	r2,-25325(gp)
  802184:	10803fcc 	andi	r2,r2,255
  802188:	1080201c 	xori	r2,r2,128
  80218c:	10bfe004 	addi	r2,r2,-128
  802190:	1000021e 	bne	r2,zero,80219c <tick+0x1a24>
  802194:	00800044 	movi	r2,1
  802198:	00000106 	br	8021a0 <tick+0x1a28>
  80219c:	0005883a 	mov	r2,zero
  8021a0:	d0a74545 	stb	r2,-25323(gp)
      g93_e1 =(!(g94));
  8021a4:	d0a756c3 	ldbu	r2,-25253(gp)
  8021a8:	10803fcc 	andi	r2,r2,255
  8021ac:	1080201c 	xori	r2,r2,128
  8021b0:	10bfe004 	addi	r2,r2,-128
  8021b4:	1005003a 	cmpeq	r2,r2,zero
  8021b8:	d0a74485 	stb	r2,-25326(gp)
      g99_e2 =(!(g97));
  8021bc:	d0a74543 	ldbu	r2,-25323(gp)
  8021c0:	10803fcc 	andi	r2,r2,255
  8021c4:	1080201c 	xori	r2,r2,128
  8021c8:	10bfe004 	addi	r2,r2,-128
  8021cc:	1005003a 	cmpeq	r2,r2,zero
  8021d0:	d0a74705 	stb	r2,-25316(gp)
      g100 =((g93_e1||g93)&&(g99_e2||g99)&&(g93||g99));
  8021d4:	d0a74483 	ldbu	r2,-25326(gp)
  8021d8:	10803fcc 	andi	r2,r2,255
  8021dc:	1080201c 	xori	r2,r2,128
  8021e0:	10bfe004 	addi	r2,r2,-128
  8021e4:	1000051e 	bne	r2,zero,8021fc <tick+0x1a84>
  8021e8:	d0a76903 	ldbu	r2,-25180(gp)
  8021ec:	10803fcc 	andi	r2,r2,255
  8021f0:	1080201c 	xori	r2,r2,128
  8021f4:	10bfe004 	addi	r2,r2,-128
  8021f8:	10001626 	beq	r2,zero,802254 <tick+0x1adc>
  8021fc:	d0a74703 	ldbu	r2,-25316(gp)
  802200:	10803fcc 	andi	r2,r2,255
  802204:	1080201c 	xori	r2,r2,128
  802208:	10bfe004 	addi	r2,r2,-128
  80220c:	1000051e 	bne	r2,zero,802224 <tick+0x1aac>
  802210:	d0a75b83 	ldbu	r2,-25234(gp)
  802214:	10803fcc 	andi	r2,r2,255
  802218:	1080201c 	xori	r2,r2,128
  80221c:	10bfe004 	addi	r2,r2,-128
  802220:	10000c26 	beq	r2,zero,802254 <tick+0x1adc>
  802224:	d0a76903 	ldbu	r2,-25180(gp)
  802228:	10803fcc 	andi	r2,r2,255
  80222c:	1080201c 	xori	r2,r2,128
  802230:	10bfe004 	addi	r2,r2,-128
  802234:	1000051e 	bne	r2,zero,80224c <tick+0x1ad4>
  802238:	d0a75b83 	ldbu	r2,-25234(gp)
  80223c:	10803fcc 	andi	r2,r2,255
  802240:	1080201c 	xori	r2,r2,128
  802244:	10bfe004 	addi	r2,r2,-128
  802248:	10000226 	beq	r2,zero,802254 <tick+0x1adc>
  80224c:	00800044 	movi	r2,1
  802250:	00000106 	br	802258 <tick+0x1ae0>
  802254:	0005883a 	mov	r2,zero
  802258:	d0a75ac5 	stb	r2,-25237(gp)
      g102 =(PRE_g101);
  80225c:	d0a758c3 	ldbu	r2,-25245(gp)
  802260:	d0a73d85 	stb	r2,-25354(gp)
      _cg102 = 1;
  802264:	00800044 	movi	r2,1
  802268:	d0a78985 	stb	r2,-25050(gp)
      g101 =(g100||(g111b&&_cg111)||(g102&&(!(_cg102))));
  80226c:	d0a75ac3 	ldbu	r2,-25237(gp)
  802270:	10803fcc 	andi	r2,r2,255
  802274:	1080201c 	xori	r2,r2,128
  802278:	10bfe004 	addi	r2,r2,-128
  80227c:	1000141e 	bne	r2,zero,8022d0 <tick+0x1b58>
  802280:	d0a75c83 	ldbu	r2,-25230(gp)
  802284:	10803fcc 	andi	r2,r2,255
  802288:	1080201c 	xori	r2,r2,128
  80228c:	10bfe004 	addi	r2,r2,-128
  802290:	10000526 	beq	r2,zero,8022a8 <tick+0x1b30>
  802294:	d0a75003 	ldbu	r2,-25280(gp)
  802298:	10803fcc 	andi	r2,r2,255
  80229c:	1080201c 	xori	r2,r2,128
  8022a0:	10bfe004 	addi	r2,r2,-128
  8022a4:	10000a1e 	bne	r2,zero,8022d0 <tick+0x1b58>
  8022a8:	d0a73d83 	ldbu	r2,-25354(gp)
  8022ac:	10803fcc 	andi	r2,r2,255
  8022b0:	1080201c 	xori	r2,r2,128
  8022b4:	10bfe004 	addi	r2,r2,-128
  8022b8:	10000726 	beq	r2,zero,8022d8 <tick+0x1b60>
  8022bc:	d0a78983 	ldbu	r2,-25050(gp)
  8022c0:	10803fcc 	andi	r2,r2,255
  8022c4:	1080201c 	xori	r2,r2,128
  8022c8:	10bfe004 	addi	r2,r2,-128
  8022cc:	1000021e 	bne	r2,zero,8022d8 <tick+0x1b60>
  8022d0:	00800044 	movi	r2,1
  8022d4:	00000106 	br	8022dc <tick+0x1b64>
  8022d8:	0005883a 	mov	r2,zero
  8022dc:	d0a76005 	stb	r2,-25216(gp)
      g106 =(g105&&_cg105);
  8022e0:	d0a750c3 	ldbu	r2,-25277(gp)
  8022e4:	10803fcc 	andi	r2,r2,255
  8022e8:	1080201c 	xori	r2,r2,128
  8022ec:	10bfe004 	addi	r2,r2,-128
  8022f0:	10000726 	beq	r2,zero,802310 <tick+0x1b98>
  8022f4:	d0a78b03 	ldbu	r2,-25044(gp)
  8022f8:	10803fcc 	andi	r2,r2,255
  8022fc:	1080201c 	xori	r2,r2,128
  802300:	10bfe004 	addi	r2,r2,-128
  802304:	10000226 	beq	r2,zero,802310 <tick+0x1b98>
  802308:	00800044 	movi	r2,1
  80230c:	00000106 	br	802314 <tick+0x1b9c>
  802310:	0005883a 	mov	r2,zero
  802314:	d0a78805 	stb	r2,-25056(gp)
      if(g106){
  802318:	d0a78803 	ldbu	r2,-25056(gp)
  80231c:	10803fcc 	andi	r2,r2,255
  802320:	1080201c 	xori	r2,r2,128
  802324:	10bfe004 	addi	r2,r2,-128
  802328:	10000326 	beq	r2,zero,802338 <tick+0x1bc0>
         t_aei++;
  80232c:	d0a73f17 	ldw	r2,-25348(gp)
  802330:	10800044 	addi	r2,r2,1
  802334:	d0a73f15 	stw	r2,-25348(gp)
      }
      g103 =((g102&&_cg102)||g106);
  802338:	d0a73d83 	ldbu	r2,-25354(gp)
  80233c:	10803fcc 	andi	r2,r2,255
  802340:	1080201c 	xori	r2,r2,128
  802344:	10bfe004 	addi	r2,r2,-128
  802348:	10000526 	beq	r2,zero,802360 <tick+0x1be8>
  80234c:	d0a78983 	ldbu	r2,-25050(gp)
  802350:	10803fcc 	andi	r2,r2,255
  802354:	1080201c 	xori	r2,r2,128
  802358:	10bfe004 	addi	r2,r2,-128
  80235c:	1000051e 	bne	r2,zero,802374 <tick+0x1bfc>
  802360:	d0a78803 	ldbu	r2,-25056(gp)
  802364:	10803fcc 	andi	r2,r2,255
  802368:	1080201c 	xori	r2,r2,128
  80236c:	10bfe004 	addi	r2,r2,-128
  802370:	10000226 	beq	r2,zero,80237c <tick+0x1c04>
  802374:	00800044 	movi	r2,1
  802378:	00000106 	br	802380 <tick+0x1c08>
  80237c:	0005883a 	mov	r2,zero
  802380:	d0a73945 	stb	r2,-25371(gp)
      if(g103){
  802384:	d0a73943 	ldbu	r2,-25371(gp)
  802388:	10803fcc 	andi	r2,r2,255
  80238c:	1080201c 	xori	r2,r2,128
  802390:	10bfe004 	addi	r2,r2,-128
  802394:	10000226 	beq	r2,zero,8023a0 <tick+0x1c28>
         AEI = 1;
  802398:	00800044 	movi	r2,1
  80239c:	d0a76985 	stb	r2,-25178(gp)
      }
      g104 =(g103||(g108&&(!(_cg108))));
  8023a0:	d0a73943 	ldbu	r2,-25371(gp)
  8023a4:	10803fcc 	andi	r2,r2,255
  8023a8:	1080201c 	xori	r2,r2,128
  8023ac:	10bfe004 	addi	r2,r2,-128
  8023b0:	10000a1e 	bne	r2,zero,8023dc <tick+0x1c64>
  8023b4:	d0a732c3 	ldbu	r2,-25397(gp)
  8023b8:	10803fcc 	andi	r2,r2,255
  8023bc:	1080201c 	xori	r2,r2,128
  8023c0:	10bfe004 	addi	r2,r2,-128
  8023c4:	10000726 	beq	r2,zero,8023e4 <tick+0x1c6c>
  8023c8:	d0a77a43 	ldbu	r2,-25111(gp)
  8023cc:	10803fcc 	andi	r2,r2,255
  8023d0:	1080201c 	xori	r2,r2,128
  8023d4:	10bfe004 	addi	r2,r2,-128
  8023d8:	1000021e 	bne	r2,zero,8023e4 <tick+0x1c6c>
  8023dc:	00800044 	movi	r2,1
  8023e0:	00000106 	br	8023e8 <tick+0x1c70>
  8023e4:	0005883a 	mov	r2,zero
  8023e8:	d0a77545 	stb	r2,-25131(gp)
      g110 =((g112&&(!(_cg112)))||g109);
  8023ec:	d0a73843 	ldbu	r2,-25375(gp)
  8023f0:	10803fcc 	andi	r2,r2,255
  8023f4:	1080201c 	xori	r2,r2,128
  8023f8:	10bfe004 	addi	r2,r2,-128
  8023fc:	10000526 	beq	r2,zero,802414 <tick+0x1c9c>
  802400:	d0a774c3 	ldbu	r2,-25133(gp)
  802404:	10803fcc 	andi	r2,r2,255
  802408:	1080201c 	xori	r2,r2,128
  80240c:	10bfe004 	addi	r2,r2,-128
  802410:	10000526 	beq	r2,zero,802428 <tick+0x1cb0>
  802414:	d0a786c3 	ldbu	r2,-25061(gp)
  802418:	10803fcc 	andi	r2,r2,255
  80241c:	1080201c 	xori	r2,r2,128
  802420:	10bfe004 	addi	r2,r2,-128
  802424:	10000226 	beq	r2,zero,802430 <tick+0x1cb8>
  802428:	00800044 	movi	r2,1
  80242c:	00000106 	br	802434 <tick+0x1cbc>
  802430:	0005883a 	mov	r2,zero
  802434:	d0a75745 	stb	r2,-25251(gp)
      g114 = g0;
  802438:	d0a77ac3 	ldbu	r2,-25109(gp)
  80243c:	d0a76085 	stb	r2,-25214(gp)
      if(g114){
  802440:	d0a76083 	ldbu	r2,-25214(gp)
  802444:	10803fcc 	andi	r2,r2,255
  802448:	1080201c 	xori	r2,r2,128
  80244c:	10bfe004 	addi	r2,r2,-128
  802450:	10000326 	beq	r2,zero,802460 <tick+0x1ce8>
         LRI = 0;
  802454:	d0274345 	stb	zero,-25331(gp)
         LRI_p = 0;
  802458:	d0273a45 	stb	zero,-25367(gp)
         t_lri = 0;
  80245c:	d0273515 	stw	zero,-25388(gp)
      }
      g116 =(PRE_g115);
  802460:	d0a775c3 	ldbu	r2,-25129(gp)
  802464:	d0a77805 	stb	r2,-25120(gp)
      g116b = g116;
  802468:	d0a77803 	ldbu	r2,-25120(gp)
  80246c:	d0a76505 	stb	r2,-25196(gp)
      _cg116 =(vp_accept|vs_accept);
  802470:	d0e75a43 	ldbu	r3,-25239(gp)
  802474:	d0a769c3 	ldbu	r2,-25177(gp)
  802478:	1884b03a 	or	r2,r3,r2
  80247c:	d0a73685 	stb	r2,-25382(gp)
      g115 =(g114||(g116b&&(!(_cg116))));
  802480:	d0a76083 	ldbu	r2,-25214(gp)
  802484:	10803fcc 	andi	r2,r2,255
  802488:	1080201c 	xori	r2,r2,128
  80248c:	10bfe004 	addi	r2,r2,-128
  802490:	10000a1e 	bne	r2,zero,8024bc <tick+0x1d44>
  802494:	d0a76503 	ldbu	r2,-25196(gp)
  802498:	10803fcc 	andi	r2,r2,255
  80249c:	1080201c 	xori	r2,r2,128
  8024a0:	10bfe004 	addi	r2,r2,-128
  8024a4:	10000726 	beq	r2,zero,8024c4 <tick+0x1d4c>
  8024a8:	d0a73683 	ldbu	r2,-25382(gp)
  8024ac:	10803fcc 	andi	r2,r2,255
  8024b0:	1080201c 	xori	r2,r2,128
  8024b4:	10bfe004 	addi	r2,r2,-128
  8024b8:	1000021e 	bne	r2,zero,8024c4 <tick+0x1d4c>
  8024bc:	00800044 	movi	r2,1
  8024c0:	00000106 	br	8024c8 <tick+0x1d50>
  8024c4:	0005883a 	mov	r2,zero
  8024c8:	d0a73e45 	stb	r2,-25351(gp)
      g118 =(PRE_g117);
  8024cc:	d0a78943 	ldbu	r2,-25051(gp)
  8024d0:	d0a74a85 	stb	r2,-25302(gp)
      _cg118 = 1;
  8024d4:	00800044 	movi	r2,1
  8024d8:	d0a751c5 	stb	r2,-25273(gp)
      g117 =((g116b&&_cg116)||(g118&&(!(_cg118))));
  8024dc:	d0a76503 	ldbu	r2,-25196(gp)
  8024e0:	10803fcc 	andi	r2,r2,255
  8024e4:	1080201c 	xori	r2,r2,128
  8024e8:	10bfe004 	addi	r2,r2,-128
  8024ec:	10000526 	beq	r2,zero,802504 <tick+0x1d8c>
  8024f0:	d0a73683 	ldbu	r2,-25382(gp)
  8024f4:	10803fcc 	andi	r2,r2,255
  8024f8:	1080201c 	xori	r2,r2,128
  8024fc:	10bfe004 	addi	r2,r2,-128
  802500:	10000a1e 	bne	r2,zero,80252c <tick+0x1db4>
  802504:	d0a74a83 	ldbu	r2,-25302(gp)
  802508:	10803fcc 	andi	r2,r2,255
  80250c:	1080201c 	xori	r2,r2,128
  802510:	10bfe004 	addi	r2,r2,-128
  802514:	10000726 	beq	r2,zero,802534 <tick+0x1dbc>
  802518:	d0a751c3 	ldbu	r2,-25273(gp)
  80251c:	10803fcc 	andi	r2,r2,255
  802520:	1080201c 	xori	r2,r2,128
  802524:	10bfe004 	addi	r2,r2,-128
  802528:	1000021e 	bne	r2,zero,802534 <tick+0x1dbc>
  80252c:	00800044 	movi	r2,1
  802530:	00000106 	br	802538 <tick+0x1dc0>
  802534:	0005883a 	mov	r2,zero
  802538:	d0a75145 	stb	r2,-25275(gp)
      g121 =(PRE_g120);
  80253c:	d0a77b03 	ldbu	r2,-25108(gp)
  802540:	d0a784c5 	stb	r2,-25069(gp)
      g121b = g121;
  802544:	d0a784c3 	ldbu	r2,-25069(gp)
  802548:	d0a766c5 	stb	r2,-25189(gp)
      _cg121 = vp_accept;
  80254c:	d0a75a43 	ldbu	r2,-25239(gp)
  802550:	d0a767c5 	stb	r2,-25185(gp)
      g123 =(g121b&&(!(_cg121)));
  802554:	d0a766c3 	ldbu	r2,-25189(gp)
  802558:	10803fcc 	andi	r2,r2,255
  80255c:	1080201c 	xori	r2,r2,128
  802560:	10bfe004 	addi	r2,r2,-128
  802564:	10000726 	beq	r2,zero,802584 <tick+0x1e0c>
  802568:	d0a767c3 	ldbu	r2,-25185(gp)
  80256c:	10803fcc 	andi	r2,r2,255
  802570:	1080201c 	xori	r2,r2,128
  802574:	10bfe004 	addi	r2,r2,-128
  802578:	1000021e 	bne	r2,zero,802584 <tick+0x1e0c>
  80257c:	00800044 	movi	r2,1
  802580:	00000106 	br	802588 <tick+0x1e10>
  802584:	0005883a 	mov	r2,zero
  802588:	d0a74145 	stb	r2,-25339(gp)
      _cg123 = vs_accept;
  80258c:	d0a769c3 	ldbu	r2,-25177(gp)
  802590:	d0a74005 	stb	r2,-25344(gp)
      g124 =(g123&&_cg123);
  802594:	d0a74143 	ldbu	r2,-25339(gp)
  802598:	10803fcc 	andi	r2,r2,255
  80259c:	1080201c 	xori	r2,r2,128
  8025a0:	10bfe004 	addi	r2,r2,-128
  8025a4:	10000726 	beq	r2,zero,8025c4 <tick+0x1e4c>
  8025a8:	d0a74003 	ldbu	r2,-25344(gp)
  8025ac:	10803fcc 	andi	r2,r2,255
  8025b0:	1080201c 	xori	r2,r2,128
  8025b4:	10bfe004 	addi	r2,r2,-128
  8025b8:	10000226 	beq	r2,zero,8025c4 <tick+0x1e4c>
  8025bc:	00800044 	movi	r2,1
  8025c0:	00000106 	br	8025c8 <tick+0x1e50>
  8025c4:	0005883a 	mov	r2,zero
  8025c8:	d0a77a05 	stb	r2,-25112(gp)
      if(g124){
  8025cc:	d0a77a03 	ldbu	r2,-25112(gp)
  8025d0:	10803fcc 	andi	r2,r2,255
  8025d4:	1080201c 	xori	r2,r2,128
  8025d8:	10bfe004 	addi	r2,r2,-128
  8025dc:	10000126 	beq	r2,zero,8025e4 <tick+0x1e6c>
         t_lri = 0;
  8025e0:	d0273515 	stw	zero,-25388(gp)
      }
      g122 =(g121b&&_cg121);
  8025e4:	d0a766c3 	ldbu	r2,-25189(gp)
  8025e8:	10803fcc 	andi	r2,r2,255
  8025ec:	1080201c 	xori	r2,r2,128
  8025f0:	10bfe004 	addi	r2,r2,-128
  8025f4:	10000726 	beq	r2,zero,802614 <tick+0x1e9c>
  8025f8:	d0a767c3 	ldbu	r2,-25185(gp)
  8025fc:	10803fcc 	andi	r2,r2,255
  802600:	1080201c 	xori	r2,r2,128
  802604:	10bfe004 	addi	r2,r2,-128
  802608:	10000226 	beq	r2,zero,802614 <tick+0x1e9c>
  80260c:	00800044 	movi	r2,1
  802610:	00000106 	br	802618 <tick+0x1ea0>
  802614:	0005883a 	mov	r2,zero
  802618:	d0a76345 	stb	r2,-25203(gp)
      if(g122){
  80261c:	d0a76343 	ldbu	r2,-25203(gp)
  802620:	10803fcc 	andi	r2,r2,255
  802624:	1080201c 	xori	r2,r2,128
  802628:	10bfe004 	addi	r2,r2,-128
  80262c:	10000126 	beq	r2,zero,802634 <tick+0x1ebc>
         t_lri = 0;
  802630:	d0273515 	stw	zero,-25388(gp)
      }
      g125 =(g123&&(!(_cg123)));
  802634:	d0a74143 	ldbu	r2,-25339(gp)
  802638:	10803fcc 	andi	r2,r2,255
  80263c:	1080201c 	xori	r2,r2,128
  802640:	10bfe004 	addi	r2,r2,-128
  802644:	10000726 	beq	r2,zero,802664 <tick+0x1eec>
  802648:	d0a74003 	ldbu	r2,-25344(gp)
  80264c:	10803fcc 	andi	r2,r2,255
  802650:	1080201c 	xori	r2,r2,128
  802654:	10bfe004 	addi	r2,r2,-128
  802658:	1000021e 	bne	r2,zero,802664 <tick+0x1eec>
  80265c:	00800044 	movi	r2,1
  802660:	00000106 	br	802668 <tick+0x1ef0>
  802664:	0005883a 	mov	r2,zero
  802668:	d0a78045 	stb	r2,-25087(gp)
      _cg125 =(t_lri < (to_lri - 1));
  80266c:	d0a73717 	ldw	r2,-25380(gp)
  802670:	10bfffc4 	addi	r2,r2,-1
  802674:	d0e73517 	ldw	r3,-25388(gp)
  802678:	1884803a 	cmplt	r2,r3,r2
  80267c:	d0a73b45 	stb	r2,-25363(gp)
      g126 =(g125&&_cg125);
  802680:	d0a78043 	ldbu	r2,-25087(gp)
  802684:	10803fcc 	andi	r2,r2,255
  802688:	1080201c 	xori	r2,r2,128
  80268c:	10bfe004 	addi	r2,r2,-128
  802690:	10000726 	beq	r2,zero,8026b0 <tick+0x1f38>
  802694:	d0a73b43 	ldbu	r2,-25363(gp)
  802698:	10803fcc 	andi	r2,r2,255
  80269c:	1080201c 	xori	r2,r2,128
  8026a0:	10bfe004 	addi	r2,r2,-128
  8026a4:	10000226 	beq	r2,zero,8026b0 <tick+0x1f38>
  8026a8:	00800044 	movi	r2,1
  8026ac:	00000106 	br	8026b4 <tick+0x1f3c>
  8026b0:	0005883a 	mov	r2,zero
  8026b4:	d0a743c5 	stb	r2,-25329(gp)
      if(g126){
  8026b8:	d0a743c3 	ldbu	r2,-25329(gp)
  8026bc:	10803fcc 	andi	r2,r2,255
  8026c0:	1080201c 	xori	r2,r2,128
  8026c4:	10bfe004 	addi	r2,r2,-128
  8026c8:	10000326 	beq	r2,zero,8026d8 <tick+0x1f60>
         t_lri++;
  8026cc:	d0a73517 	ldw	r2,-25388(gp)
  8026d0:	10800044 	addi	r2,r2,1
  8026d4:	d0a73515 	stw	r2,-25388(gp)
      }
      g136 =(PRE_g135);
  8026d8:	d0a78843 	ldbu	r2,-25055(gp)
  8026dc:	d0a75a05 	stb	r2,-25240(gp)
      g136b = g136;
  8026e0:	d0a75a03 	ldbu	r2,-25240(gp)
  8026e4:	d0a75b05 	stb	r2,-25236(gp)
      _cg136 =(vp_accept|vs_accept);
  8026e8:	d0e75a43 	ldbu	r3,-25239(gp)
  8026ec:	d0a769c3 	ldbu	r2,-25177(gp)
  8026f0:	1884b03a 	or	r2,r3,r2
  8026f4:	d0a76545 	stb	r2,-25195(gp)
      g137 =(g136b&&_cg136);
  8026f8:	d0a75b03 	ldbu	r2,-25236(gp)
  8026fc:	10803fcc 	andi	r2,r2,255
  802700:	1080201c 	xori	r2,r2,128
  802704:	10bfe004 	addi	r2,r2,-128
  802708:	10000726 	beq	r2,zero,802728 <tick+0x1fb0>
  80270c:	d0a76543 	ldbu	r2,-25195(gp)
  802710:	10803fcc 	andi	r2,r2,255
  802714:	1080201c 	xori	r2,r2,128
  802718:	10bfe004 	addi	r2,r2,-128
  80271c:	10000226 	beq	r2,zero,802728 <tick+0x1fb0>
  802720:	00800044 	movi	r2,1
  802724:	00000106 	br	80272c <tick+0x1fb4>
  802728:	0005883a 	mov	r2,zero
  80272c:	d0a77a85 	stb	r2,-25110(gp)
      if(g137){
  802730:	d0a77a83 	ldbu	r2,-25110(gp)
  802734:	10803fcc 	andi	r2,r2,255
  802738:	1080201c 	xori	r2,r2,128
  80273c:	10bfe004 	addi	r2,r2,-128
  802740:	10000226 	beq	r2,zero,80274c <tick+0x1fd4>
         _trig5 = 1;
  802744:	00800044 	movi	r2,1
  802748:	d0a77d05 	stb	r2,-25100(gp)
      }
      g127 =(g125&&(!(_cg125)));
  80274c:	d0a78043 	ldbu	r2,-25087(gp)
  802750:	10803fcc 	andi	r2,r2,255
  802754:	1080201c 	xori	r2,r2,128
  802758:	10bfe004 	addi	r2,r2,-128
  80275c:	10000726 	beq	r2,zero,80277c <tick+0x2004>
  802760:	d0a73b43 	ldbu	r2,-25363(gp)
  802764:	10803fcc 	andi	r2,r2,255
  802768:	1080201c 	xori	r2,r2,128
  80276c:	10bfe004 	addi	r2,r2,-128
  802770:	1000021e 	bne	r2,zero,80277c <tick+0x2004>
  802774:	00800044 	movi	r2,1
  802778:	00000106 	br	802780 <tick+0x2008>
  80277c:	0005883a 	mov	r2,zero
  802780:	d0a73ac5 	stb	r2,-25365(gp)
      _cg127 =(t_lri >= (to_lri - 1));
  802784:	d0a73717 	ldw	r2,-25380(gp)
  802788:	10bfffc4 	addi	r2,r2,-1
  80278c:	d0e73517 	ldw	r3,-25388(gp)
  802790:	1884403a 	cmpge	r2,r3,r2
  802794:	d0a76ec5 	stb	r2,-25157(gp)
      g128 =(g127&&_cg127);
  802798:	d0a73ac3 	ldbu	r2,-25365(gp)
  80279c:	10803fcc 	andi	r2,r2,255
  8027a0:	1080201c 	xori	r2,r2,128
  8027a4:	10bfe004 	addi	r2,r2,-128
  8027a8:	10000726 	beq	r2,zero,8027c8 <tick+0x2050>
  8027ac:	d0a76ec3 	ldbu	r2,-25157(gp)
  8027b0:	10803fcc 	andi	r2,r2,255
  8027b4:	1080201c 	xori	r2,r2,128
  8027b8:	10bfe004 	addi	r2,r2,-128
  8027bc:	10000226 	beq	r2,zero,8027c8 <tick+0x2050>
  8027c0:	00800044 	movi	r2,1
  8027c4:	00000106 	br	8027cc <tick+0x2054>
  8027c8:	0005883a 	mov	r2,zero
  8027cc:	d0a75945 	stb	r2,-25243(gp)
      if(g128){
  8027d0:	d0a75943 	ldbu	r2,-25243(gp)
  8027d4:	10803fcc 	andi	r2,r2,255
  8027d8:	1080201c 	xori	r2,r2,128
  8027dc:	10bfe004 	addi	r2,r2,-128
  8027e0:	10000426 	beq	r2,zero,8027f4 <tick+0x207c>
         LRI_p = 1;
  8027e4:	00800044 	movi	r2,1
  8027e8:	d0a73a45 	stb	r2,-25367(gp)
         t_lri = 0;
  8027ec:	d0273515 	stw	zero,-25388(gp)
         _trig5 = 0;
  8027f0:	d0277d05 	stb	zero,-25100(gp)
      }
      g129 = g128;
  8027f4:	d0a75943 	ldbu	r2,-25243(gp)
  8027f8:	d0a76185 	stb	r2,-25210(gp)
      g133 =(PRE_g132);
  8027fc:	d0a78883 	ldbu	r2,-25054(gp)
  802800:	d0a78685 	stb	r2,-25062(gp)
      if(g133){
  802804:	d0a78683 	ldbu	r2,-25062(gp)
  802808:	10803fcc 	andi	r2,r2,255
  80280c:	1080201c 	xori	r2,r2,128
  802810:	10bfe004 	addi	r2,r2,-128
  802814:	10000126 	beq	r2,zero,80281c <tick+0x20a4>
         LRI = 0;
  802818:	d0274345 	stb	zero,-25331(gp)
      }
      g130 =(g129||g133);
  80281c:	d0a76183 	ldbu	r2,-25210(gp)
  802820:	10803fcc 	andi	r2,r2,255
  802824:	1080201c 	xori	r2,r2,128
  802828:	10bfe004 	addi	r2,r2,-128
  80282c:	1000051e 	bne	r2,zero,802844 <tick+0x20cc>
  802830:	d0a78683 	ldbu	r2,-25062(gp)
  802834:	10803fcc 	andi	r2,r2,255
  802838:	1080201c 	xori	r2,r2,128
  80283c:	10bfe004 	addi	r2,r2,-128
  802840:	10000226 	beq	r2,zero,80284c <tick+0x20d4>
  802844:	00800044 	movi	r2,1
  802848:	00000106 	br	802850 <tick+0x20d8>
  80284c:	0005883a 	mov	r2,zero
  802850:	d0a78405 	stb	r2,-25072(gp)
      _cg130 = _trig5;
  802854:	d0a77d03 	ldbu	r2,-25100(gp)
  802858:	d0a76405 	stb	r2,-25200(gp)
      g132 =(g130&&(!(_cg130)));
  80285c:	d0a78403 	ldbu	r2,-25072(gp)
  802860:	10803fcc 	andi	r2,r2,255
  802864:	1080201c 	xori	r2,r2,128
  802868:	10bfe004 	addi	r2,r2,-128
  80286c:	10000726 	beq	r2,zero,80288c <tick+0x2114>
  802870:	d0a76403 	ldbu	r2,-25200(gp)
  802874:	10803fcc 	andi	r2,r2,255
  802878:	1080201c 	xori	r2,r2,128
  80287c:	10bfe004 	addi	r2,r2,-128
  802880:	1000021e 	bne	r2,zero,80288c <tick+0x2114>
  802884:	00800044 	movi	r2,1
  802888:	00000106 	br	802890 <tick+0x2118>
  80288c:	0005883a 	mov	r2,zero
  802890:	d0a74e05 	stb	r2,-25288(gp)
      g131_e1 =(!(g132));
  802894:	d0a74e03 	ldbu	r2,-25288(gp)
  802898:	10803fcc 	andi	r2,r2,255
  80289c:	1080201c 	xori	r2,r2,128
  8028a0:	10bfe004 	addi	r2,r2,-128
  8028a4:	1005003a 	cmpeq	r2,r2,zero
  8028a8:	d0a77dc5 	stb	r2,-25097(gp)
      g131 =(g130&&_cg130);
  8028ac:	d0a78403 	ldbu	r2,-25072(gp)
  8028b0:	10803fcc 	andi	r2,r2,255
  8028b4:	1080201c 	xori	r2,r2,128
  8028b8:	10bfe004 	addi	r2,r2,-128
  8028bc:	10000726 	beq	r2,zero,8028dc <tick+0x2164>
  8028c0:	d0a76403 	ldbu	r2,-25200(gp)
  8028c4:	10803fcc 	andi	r2,r2,255
  8028c8:	1080201c 	xori	r2,r2,128
  8028cc:	10bfe004 	addi	r2,r2,-128
  8028d0:	10000226 	beq	r2,zero,8028dc <tick+0x2164>
  8028d4:	00800044 	movi	r2,1
  8028d8:	00000106 	br	8028e0 <tick+0x2168>
  8028dc:	0005883a 	mov	r2,zero
  8028e0:	d0a761c5 	stb	r2,-25209(gp)
      g134 = g128;
  8028e4:	d0a75943 	ldbu	r2,-25243(gp)
  8028e8:	d0a764c5 	stb	r2,-25197(gp)
      g135 =(g134||(g136b&&(!(_cg136))));
  8028ec:	d0a764c3 	ldbu	r2,-25197(gp)
  8028f0:	10803fcc 	andi	r2,r2,255
  8028f4:	1080201c 	xori	r2,r2,128
  8028f8:	10bfe004 	addi	r2,r2,-128
  8028fc:	10000a1e 	bne	r2,zero,802928 <tick+0x21b0>
  802900:	d0a75b03 	ldbu	r2,-25236(gp)
  802904:	10803fcc 	andi	r2,r2,255
  802908:	1080201c 	xori	r2,r2,128
  80290c:	10bfe004 	addi	r2,r2,-128
  802910:	10000726 	beq	r2,zero,802930 <tick+0x21b8>
  802914:	d0a76543 	ldbu	r2,-25195(gp)
  802918:	10803fcc 	andi	r2,r2,255
  80291c:	1080201c 	xori	r2,r2,128
  802920:	10bfe004 	addi	r2,r2,-128
  802924:	1000021e 	bne	r2,zero,802930 <tick+0x21b8>
  802928:	00800044 	movi	r2,1
  80292c:	00000106 	br	802934 <tick+0x21bc>
  802930:	0005883a 	mov	r2,zero
  802934:	d0a74285 	stb	r2,-25334(gp)
      g137_e2 =(!(g135));
  802938:	d0a74283 	ldbu	r2,-25334(gp)
  80293c:	10803fcc 	andi	r2,r2,255
  802940:	1080201c 	xori	r2,r2,128
  802944:	10bfe004 	addi	r2,r2,-128
  802948:	1005003a 	cmpeq	r2,r2,zero
  80294c:	d0a733c5 	stb	r2,-25393(gp)
      g138 =((g131_e1||g131)&&(g137_e2||g137)&&(g131||g137));
  802950:	d0a77dc3 	ldbu	r2,-25097(gp)
  802954:	10803fcc 	andi	r2,r2,255
  802958:	1080201c 	xori	r2,r2,128
  80295c:	10bfe004 	addi	r2,r2,-128
  802960:	1000051e 	bne	r2,zero,802978 <tick+0x2200>
  802964:	d0a761c3 	ldbu	r2,-25209(gp)
  802968:	10803fcc 	andi	r2,r2,255
  80296c:	1080201c 	xori	r2,r2,128
  802970:	10bfe004 	addi	r2,r2,-128
  802974:	10001626 	beq	r2,zero,8029d0 <tick+0x2258>
  802978:	d0a733c3 	ldbu	r2,-25393(gp)
  80297c:	10803fcc 	andi	r2,r2,255
  802980:	1080201c 	xori	r2,r2,128
  802984:	10bfe004 	addi	r2,r2,-128
  802988:	1000051e 	bne	r2,zero,8029a0 <tick+0x2228>
  80298c:	d0a77a83 	ldbu	r2,-25110(gp)
  802990:	10803fcc 	andi	r2,r2,255
  802994:	1080201c 	xori	r2,r2,128
  802998:	10bfe004 	addi	r2,r2,-128
  80299c:	10000c26 	beq	r2,zero,8029d0 <tick+0x2258>
  8029a0:	d0a761c3 	ldbu	r2,-25209(gp)
  8029a4:	10803fcc 	andi	r2,r2,255
  8029a8:	1080201c 	xori	r2,r2,128
  8029ac:	10bfe004 	addi	r2,r2,-128
  8029b0:	1000051e 	bne	r2,zero,8029c8 <tick+0x2250>
  8029b4:	d0a77a83 	ldbu	r2,-25110(gp)
  8029b8:	10803fcc 	andi	r2,r2,255
  8029bc:	1080201c 	xori	r2,r2,128
  8029c0:	10bfe004 	addi	r2,r2,-128
  8029c4:	10000226 	beq	r2,zero,8029d0 <tick+0x2258>
  8029c8:	00800044 	movi	r2,1
  8029cc:	00000106 	br	8029d4 <tick+0x225c>
  8029d0:	0005883a 	mov	r2,zero
  8029d4:	d0a77085 	stb	r2,-25150(gp)
      g119 =(g124||(g118&&_cg118)||g122||g126||g138);
  8029d8:	d0a77a03 	ldbu	r2,-25112(gp)
  8029dc:	10803fcc 	andi	r2,r2,255
  8029e0:	1080201c 	xori	r2,r2,128
  8029e4:	10bfe004 	addi	r2,r2,-128
  8029e8:	1000191e 	bne	r2,zero,802a50 <tick+0x22d8>
  8029ec:	d0a74a83 	ldbu	r2,-25302(gp)
  8029f0:	10803fcc 	andi	r2,r2,255
  8029f4:	1080201c 	xori	r2,r2,128
  8029f8:	10bfe004 	addi	r2,r2,-128
  8029fc:	10000526 	beq	r2,zero,802a14 <tick+0x229c>
  802a00:	d0a751c3 	ldbu	r2,-25273(gp)
  802a04:	10803fcc 	andi	r2,r2,255
  802a08:	1080201c 	xori	r2,r2,128
  802a0c:	10bfe004 	addi	r2,r2,-128
  802a10:	10000f1e 	bne	r2,zero,802a50 <tick+0x22d8>
  802a14:	d0a76343 	ldbu	r2,-25203(gp)
  802a18:	10803fcc 	andi	r2,r2,255
  802a1c:	1080201c 	xori	r2,r2,128
  802a20:	10bfe004 	addi	r2,r2,-128
  802a24:	10000a1e 	bne	r2,zero,802a50 <tick+0x22d8>
  802a28:	d0a743c3 	ldbu	r2,-25329(gp)
  802a2c:	10803fcc 	andi	r2,r2,255
  802a30:	1080201c 	xori	r2,r2,128
  802a34:	10bfe004 	addi	r2,r2,-128
  802a38:	1000051e 	bne	r2,zero,802a50 <tick+0x22d8>
  802a3c:	d0a77083 	ldbu	r2,-25150(gp)
  802a40:	10803fcc 	andi	r2,r2,255
  802a44:	1080201c 	xori	r2,r2,128
  802a48:	10bfe004 	addi	r2,r2,-128
  802a4c:	10000226 	beq	r2,zero,802a58 <tick+0x22e0>
  802a50:	00800044 	movi	r2,1
  802a54:	00000106 	br	802a5c <tick+0x22e4>
  802a58:	0005883a 	mov	r2,zero
  802a5c:	d0a76945 	stb	r2,-25179(gp)
      if(g119){
  802a60:	d0a76943 	ldbu	r2,-25179(gp)
  802a64:	10803fcc 	andi	r2,r2,255
  802a68:	1080201c 	xori	r2,r2,128
  802a6c:	10bfe004 	addi	r2,r2,-128
  802a70:	10000326 	beq	r2,zero,802a80 <tick+0x2308>
         LRI_p = 0;
  802a74:	d0273a45 	stb	zero,-25367(gp)
         LRI = 1;
  802a78:	00800044 	movi	r2,1
  802a7c:	d0a74345 	stb	r2,-25331(gp)
      }
      g120 =(g119||(g127&&(!(_cg127))));
  802a80:	d0a76943 	ldbu	r2,-25179(gp)
  802a84:	10803fcc 	andi	r2,r2,255
  802a88:	1080201c 	xori	r2,r2,128
  802a8c:	10bfe004 	addi	r2,r2,-128
  802a90:	10000a1e 	bne	r2,zero,802abc <tick+0x2344>
  802a94:	d0a73ac3 	ldbu	r2,-25365(gp)
  802a98:	10803fcc 	andi	r2,r2,255
  802a9c:	1080201c 	xori	r2,r2,128
  802aa0:	10bfe004 	addi	r2,r2,-128
  802aa4:	10000726 	beq	r2,zero,802ac4 <tick+0x234c>
  802aa8:	d0a76ec3 	ldbu	r2,-25157(gp)
  802aac:	10803fcc 	andi	r2,r2,255
  802ab0:	1080201c 	xori	r2,r2,128
  802ab4:	10bfe004 	addi	r2,r2,-128
  802ab8:	1000021e 	bne	r2,zero,802ac4 <tick+0x234c>
  802abc:	00800044 	movi	r2,1
  802ac0:	00000106 	br	802ac8 <tick+0x2350>
  802ac4:	0005883a 	mov	r2,zero
  802ac8:	d0a78545 	stb	r2,-25067(gp)
      g140 = g0;
  802acc:	d0a77ac3 	ldbu	r2,-25109(gp)
  802ad0:	d0a73dc5 	stb	r2,-25353(gp)
      g158 =(g156&&(!(_cg156)));
  802ad4:	d0a73e03 	ldbu	r2,-25352(gp)
  802ad8:	10803fcc 	andi	r2,r2,255
  802adc:	1080201c 	xori	r2,r2,128
  802ae0:	10bfe004 	addi	r2,r2,-128
  802ae4:	10000726 	beq	r2,zero,802b04 <tick+0x238c>
  802ae8:	d0a78003 	ldbu	r2,-25088(gp)
  802aec:	10803fcc 	andi	r2,r2,255
  802af0:	1080201c 	xori	r2,r2,128
  802af4:	10bfe004 	addi	r2,r2,-128
  802af8:	1000021e 	bne	r2,zero,802b04 <tick+0x238c>
  802afc:	00800044 	movi	r2,1
  802b00:	00000106 	br	802b08 <tick+0x2390>
  802b04:	0005883a 	mov	r2,zero
  802b08:	d0a75105 	stb	r2,-25276(gp)
      _cg158 =(t_uri >= (to_uri - 2));
  802b0c:	d0a74617 	ldw	r2,-25320(gp)
  802b10:	10bfff84 	addi	r2,r2,-2
  802b14:	d0e75e17 	ldw	r3,-25224(gp)
  802b18:	1884403a 	cmpge	r2,r3,r2
  802b1c:	d0a77105 	stb	r2,-25148(gp)
      g141 =((g158&&_cg158)||g140);
  802b20:	d0a75103 	ldbu	r2,-25276(gp)
  802b24:	10803fcc 	andi	r2,r2,255
  802b28:	1080201c 	xori	r2,r2,128
  802b2c:	10bfe004 	addi	r2,r2,-128
  802b30:	10000526 	beq	r2,zero,802b48 <tick+0x23d0>
  802b34:	d0a77103 	ldbu	r2,-25148(gp)
  802b38:	10803fcc 	andi	r2,r2,255
  802b3c:	1080201c 	xori	r2,r2,128
  802b40:	10bfe004 	addi	r2,r2,-128
  802b44:	1000051e 	bne	r2,zero,802b5c <tick+0x23e4>
  802b48:	d0a73dc3 	ldbu	r2,-25353(gp)
  802b4c:	10803fcc 	andi	r2,r2,255
  802b50:	1080201c 	xori	r2,r2,128
  802b54:	10bfe004 	addi	r2,r2,-128
  802b58:	10000226 	beq	r2,zero,802b64 <tick+0x23ec>
  802b5c:	00800044 	movi	r2,1
  802b60:	00000106 	br	802b68 <tick+0x23f0>
  802b64:	0005883a 	mov	r2,zero
  802b68:	d0a77785 	stb	r2,-25122(gp)
      if(g141){
  802b6c:	d0a77783 	ldbu	r2,-25122(gp)
  802b70:	10803fcc 	andi	r2,r2,255
  802b74:	1080201c 	xori	r2,r2,128
  802b78:	10bfe004 	addi	r2,r2,-128
  802b7c:	10000226 	beq	r2,zero,802b88 <tick+0x2410>
         t_uri = 0;
  802b80:	d0275e15 	stw	zero,-25224(gp)
         _trig6 = 0;
  802b84:	d0274045 	stb	zero,-25343(gp)
      }
      g142 = g141;
  802b88:	d0a77783 	ldbu	r2,-25122(gp)
  802b8c:	d0a77d45 	stb	r2,-25099(gp)
      g149 =(PRE_g148);
  802b90:	d0a75f83 	ldbu	r2,-25218(gp)
  802b94:	d0a787c5 	stb	r2,-25057(gp)
      g149b = g149;
  802b98:	d0a787c3 	ldbu	r2,-25057(gp)
  802b9c:	d0a74905 	stb	r2,-25308(gp)
      _cg149 =(vp_accept|vs_accept);
  802ba0:	d0e75a43 	ldbu	r3,-25239(gp)
  802ba4:	d0a769c3 	ldbu	r2,-25177(gp)
  802ba8:	1884b03a 	or	r2,r3,r2
  802bac:	d0a74945 	stb	r2,-25307(gp)
      g150 =(g149b&&_cg149);
  802bb0:	d0a74903 	ldbu	r2,-25308(gp)
  802bb4:	10803fcc 	andi	r2,r2,255
  802bb8:	1080201c 	xori	r2,r2,128
  802bbc:	10bfe004 	addi	r2,r2,-128
  802bc0:	10000726 	beq	r2,zero,802be0 <tick+0x2468>
  802bc4:	d0a74943 	ldbu	r2,-25307(gp)
  802bc8:	10803fcc 	andi	r2,r2,255
  802bcc:	1080201c 	xori	r2,r2,128
  802bd0:	10bfe004 	addi	r2,r2,-128
  802bd4:	10000226 	beq	r2,zero,802be0 <tick+0x2468>
  802bd8:	00800044 	movi	r2,1
  802bdc:	00000106 	br	802be4 <tick+0x246c>
  802be0:	0005883a 	mov	r2,zero
  802be4:	d0a74105 	stb	r2,-25340(gp)
      if(g150){
  802be8:	d0a74103 	ldbu	r2,-25340(gp)
  802bec:	10803fcc 	andi	r2,r2,255
  802bf0:	1080201c 	xori	r2,r2,128
  802bf4:	10bfe004 	addi	r2,r2,-128
  802bf8:	10000226 	beq	r2,zero,802c04 <tick+0x248c>
         _trig6 = 1;
  802bfc:	00800044 	movi	r2,1
  802c00:	d0a74045 	stb	r2,-25343(gp)
      }
      g143 =(g146||g142);
  802c04:	d0a73903 	ldbu	r2,-25372(gp)
  802c08:	10803fcc 	andi	r2,r2,255
  802c0c:	1080201c 	xori	r2,r2,128
  802c10:	10bfe004 	addi	r2,r2,-128
  802c14:	1000051e 	bne	r2,zero,802c2c <tick+0x24b4>
  802c18:	d0a77d43 	ldbu	r2,-25099(gp)
  802c1c:	10803fcc 	andi	r2,r2,255
  802c20:	1080201c 	xori	r2,r2,128
  802c24:	10bfe004 	addi	r2,r2,-128
  802c28:	10000226 	beq	r2,zero,802c34 <tick+0x24bc>
  802c2c:	00800044 	movi	r2,1
  802c30:	00000106 	br	802c38 <tick+0x24c0>
  802c34:	0005883a 	mov	r2,zero
  802c38:	d0a75a85 	stb	r2,-25238(gp)
      _cg143 = _trig6;
  802c3c:	d0a74043 	ldbu	r2,-25343(gp)
  802c40:	d0a78705 	stb	r2,-25060(gp)
      g144 =(g143&&_cg143);
  802c44:	d0a75a83 	ldbu	r2,-25238(gp)
  802c48:	10803fcc 	andi	r2,r2,255
  802c4c:	1080201c 	xori	r2,r2,128
  802c50:	10bfe004 	addi	r2,r2,-128
  802c54:	10000726 	beq	r2,zero,802c74 <tick+0x24fc>
  802c58:	d0a78703 	ldbu	r2,-25060(gp)
  802c5c:	10803fcc 	andi	r2,r2,255
  802c60:	1080201c 	xori	r2,r2,128
  802c64:	10bfe004 	addi	r2,r2,-128
  802c68:	10000226 	beq	r2,zero,802c74 <tick+0x24fc>
  802c6c:	00800044 	movi	r2,1
  802c70:	00000106 	br	802c78 <tick+0x2500>
  802c74:	0005883a 	mov	r2,zero
  802c78:	d0a75fc5 	stb	r2,-25217(gp)
      g145 =(g143&&(!(_cg143)));
  802c7c:	d0a75a83 	ldbu	r2,-25238(gp)
  802c80:	10803fcc 	andi	r2,r2,255
  802c84:	1080201c 	xori	r2,r2,128
  802c88:	10bfe004 	addi	r2,r2,-128
  802c8c:	10000726 	beq	r2,zero,802cac <tick+0x2534>
  802c90:	d0a78703 	ldbu	r2,-25060(gp)
  802c94:	10803fcc 	andi	r2,r2,255
  802c98:	1080201c 	xori	r2,r2,128
  802c9c:	10bfe004 	addi	r2,r2,-128
  802ca0:	1000021e 	bne	r2,zero,802cac <tick+0x2534>
  802ca4:	00800044 	movi	r2,1
  802ca8:	00000106 	br	802cb0 <tick+0x2538>
  802cac:	0005883a 	mov	r2,zero
  802cb0:	d0a73d45 	stb	r2,-25355(gp)
      g147 = g141;
  802cb4:	d0a77783 	ldbu	r2,-25122(gp)
  802cb8:	d0a77505 	stb	r2,-25132(gp)
      g148 =(g147||(g149b&&(!(_cg149))));
  802cbc:	d0a77503 	ldbu	r2,-25132(gp)
  802cc0:	10803fcc 	andi	r2,r2,255
  802cc4:	1080201c 	xori	r2,r2,128
  802cc8:	10bfe004 	addi	r2,r2,-128
  802ccc:	10000a1e 	bne	r2,zero,802cf8 <tick+0x2580>
  802cd0:	d0a74903 	ldbu	r2,-25308(gp)
  802cd4:	10803fcc 	andi	r2,r2,255
  802cd8:	1080201c 	xori	r2,r2,128
  802cdc:	10bfe004 	addi	r2,r2,-128
  802ce0:	10000726 	beq	r2,zero,802d00 <tick+0x2588>
  802ce4:	d0a74943 	ldbu	r2,-25307(gp)
  802ce8:	10803fcc 	andi	r2,r2,255
  802cec:	1080201c 	xori	r2,r2,128
  802cf0:	10bfe004 	addi	r2,r2,-128
  802cf4:	1000021e 	bne	r2,zero,802d00 <tick+0x2588>
  802cf8:	00800044 	movi	r2,1
  802cfc:	00000106 	br	802d04 <tick+0x258c>
  802d00:	0005883a 	mov	r2,zero
  802d04:	d0a75085 	stb	r2,-25278(gp)
      g144_e1 =(!(g145));
  802d08:	d0a73d43 	ldbu	r2,-25355(gp)
  802d0c:	10803fcc 	andi	r2,r2,255
  802d10:	1080201c 	xori	r2,r2,128
  802d14:	10bfe004 	addi	r2,r2,-128
  802d18:	1005003a 	cmpeq	r2,r2,zero
  802d1c:	d0a78185 	stb	r2,-25082(gp)
      g150_e2 =(!(g148));
  802d20:	d0a75083 	ldbu	r2,-25278(gp)
  802d24:	10803fcc 	andi	r2,r2,255
  802d28:	1080201c 	xori	r2,r2,128
  802d2c:	10bfe004 	addi	r2,r2,-128
  802d30:	1005003a 	cmpeq	r2,r2,zero
  802d34:	d0a74405 	stb	r2,-25328(gp)
      g151 =((g144_e1||g144)&&(g150_e2||g150)&&(g144||g150));
  802d38:	d0a78183 	ldbu	r2,-25082(gp)
  802d3c:	10803fcc 	andi	r2,r2,255
  802d40:	1080201c 	xori	r2,r2,128
  802d44:	10bfe004 	addi	r2,r2,-128
  802d48:	1000051e 	bne	r2,zero,802d60 <tick+0x25e8>
  802d4c:	d0a75fc3 	ldbu	r2,-25217(gp)
  802d50:	10803fcc 	andi	r2,r2,255
  802d54:	1080201c 	xori	r2,r2,128
  802d58:	10bfe004 	addi	r2,r2,-128
  802d5c:	10001626 	beq	r2,zero,802db8 <tick+0x2640>
  802d60:	d0a74403 	ldbu	r2,-25328(gp)
  802d64:	10803fcc 	andi	r2,r2,255
  802d68:	1080201c 	xori	r2,r2,128
  802d6c:	10bfe004 	addi	r2,r2,-128
  802d70:	1000051e 	bne	r2,zero,802d88 <tick+0x2610>
  802d74:	d0a74103 	ldbu	r2,-25340(gp)
  802d78:	10803fcc 	andi	r2,r2,255
  802d7c:	1080201c 	xori	r2,r2,128
  802d80:	10bfe004 	addi	r2,r2,-128
  802d84:	10000c26 	beq	r2,zero,802db8 <tick+0x2640>
  802d88:	d0a75fc3 	ldbu	r2,-25217(gp)
  802d8c:	10803fcc 	andi	r2,r2,255
  802d90:	1080201c 	xori	r2,r2,128
  802d94:	10bfe004 	addi	r2,r2,-128
  802d98:	1000051e 	bne	r2,zero,802db0 <tick+0x2638>
  802d9c:	d0a74103 	ldbu	r2,-25340(gp)
  802da0:	10803fcc 	andi	r2,r2,255
  802da4:	1080201c 	xori	r2,r2,128
  802da8:	10bfe004 	addi	r2,r2,-128
  802dac:	10000226 	beq	r2,zero,802db8 <tick+0x2640>
  802db0:	00800044 	movi	r2,1
  802db4:	00000106 	br	802dbc <tick+0x2644>
  802db8:	0005883a 	mov	r2,zero
  802dbc:	d0a75705 	stb	r2,-25252(gp)
      g152 =((g153&&(!(_cg153)))||g151);
  802dc0:	d0a73803 	ldbu	r2,-25376(gp)
  802dc4:	10803fcc 	andi	r2,r2,255
  802dc8:	1080201c 	xori	r2,r2,128
  802dcc:	10bfe004 	addi	r2,r2,-128
  802dd0:	10000526 	beq	r2,zero,802de8 <tick+0x2670>
  802dd4:	d0a74303 	ldbu	r2,-25332(gp)
  802dd8:	10803fcc 	andi	r2,r2,255
  802ddc:	1080201c 	xori	r2,r2,128
  802de0:	10bfe004 	addi	r2,r2,-128
  802de4:	10000526 	beq	r2,zero,802dfc <tick+0x2684>
  802de8:	d0a75703 	ldbu	r2,-25252(gp)
  802dec:	10803fcc 	andi	r2,r2,255
  802df0:	1080201c 	xori	r2,r2,128
  802df4:	10bfe004 	addi	r2,r2,-128
  802df8:	10000226 	beq	r2,zero,802e04 <tick+0x268c>
  802dfc:	00800044 	movi	r2,1
  802e00:	00000106 	br	802e08 <tick+0x2690>
  802e04:	0005883a 	mov	r2,zero
  802e08:	d0a73345 	stb	r2,-25395(gp)
      g155 =(g154||(g158&&(!(_cg158))));
  802e0c:	d0a771c3 	ldbu	r2,-25145(gp)
  802e10:	10803fcc 	andi	r2,r2,255
  802e14:	1080201c 	xori	r2,r2,128
  802e18:	10bfe004 	addi	r2,r2,-128
  802e1c:	10000a1e 	bne	r2,zero,802e48 <tick+0x26d0>
  802e20:	d0a75103 	ldbu	r2,-25276(gp)
  802e24:	10803fcc 	andi	r2,r2,255
  802e28:	1080201c 	xori	r2,r2,128
  802e2c:	10bfe004 	addi	r2,r2,-128
  802e30:	10000726 	beq	r2,zero,802e50 <tick+0x26d8>
  802e34:	d0a77103 	ldbu	r2,-25148(gp)
  802e38:	10803fcc 	andi	r2,r2,255
  802e3c:	1080201c 	xori	r2,r2,128
  802e40:	10bfe004 	addi	r2,r2,-128
  802e44:	1000021e 	bne	r2,zero,802e50 <tick+0x26d8>
  802e48:	00800044 	movi	r2,1
  802e4c:	00000106 	br	802e54 <tick+0x26dc>
  802e50:	0005883a 	mov	r2,zero
  802e54:	d0a76045 	stb	r2,-25215(gp)
      g12_e1 =(!((g3||g6||g10)));
  802e58:	d0a738c3 	ldbu	r2,-25373(gp)
  802e5c:	10803fcc 	andi	r2,r2,255
  802e60:	1080201c 	xori	r2,r2,128
  802e64:	10bfe004 	addi	r2,r2,-128
  802e68:	10000c1e 	bne	r2,zero,802e9c <tick+0x2724>
  802e6c:	d0a77843 	ldbu	r2,-25119(gp)
  802e70:	10803fcc 	andi	r2,r2,255
  802e74:	1080201c 	xori	r2,r2,128
  802e78:	10bfe004 	addi	r2,r2,-128
  802e7c:	1000071e 	bne	r2,zero,802e9c <tick+0x2724>
  802e80:	d0a788c3 	ldbu	r2,-25053(gp)
  802e84:	10803fcc 	andi	r2,r2,255
  802e88:	1080201c 	xori	r2,r2,128
  802e8c:	10bfe004 	addi	r2,r2,-128
  802e90:	1000021e 	bne	r2,zero,802e9c <tick+0x2724>
  802e94:	00800044 	movi	r2,1
  802e98:	00000106 	br	802ea0 <tick+0x2728>
  802e9c:	0005883a 	mov	r2,zero
  802ea0:	d0a76ac5 	stb	r2,-25173(gp)
      g24_e2 =(!((g15||g18||g22)));
  802ea4:	d0a76603 	ldbu	r2,-25192(gp)
  802ea8:	10803fcc 	andi	r2,r2,255
  802eac:	1080201c 	xori	r2,r2,128
  802eb0:	10bfe004 	addi	r2,r2,-128
  802eb4:	10000c1e 	bne	r2,zero,802ee8 <tick+0x2770>
  802eb8:	d0a74c83 	ldbu	r2,-25294(gp)
  802ebc:	10803fcc 	andi	r2,r2,255
  802ec0:	1080201c 	xori	r2,r2,128
  802ec4:	10bfe004 	addi	r2,r2,-128
  802ec8:	1000071e 	bne	r2,zero,802ee8 <tick+0x2770>
  802ecc:	d0a77e43 	ldbu	r2,-25095(gp)
  802ed0:	10803fcc 	andi	r2,r2,255
  802ed4:	1080201c 	xori	r2,r2,128
  802ed8:	10bfe004 	addi	r2,r2,-128
  802edc:	1000021e 	bne	r2,zero,802ee8 <tick+0x2770>
  802ee0:	00800044 	movi	r2,1
  802ee4:	00000106 	br	802eec <tick+0x2774>
  802ee8:	0005883a 	mov	r2,zero
  802eec:	d0a74b85 	stb	r2,-25298(gp)
      g56_e3 =(!((g33||g30||g37||g40||g52||g49)));
  802ef0:	d0a762c3 	ldbu	r2,-25205(gp)
  802ef4:	10803fcc 	andi	r2,r2,255
  802ef8:	1080201c 	xori	r2,r2,128
  802efc:	10bfe004 	addi	r2,r2,-128
  802f00:	10001b1e 	bne	r2,zero,802f70 <tick+0x27f8>
  802f04:	d0a77b83 	ldbu	r2,-25106(gp)
  802f08:	10803fcc 	andi	r2,r2,255
  802f0c:	1080201c 	xori	r2,r2,128
  802f10:	10bfe004 	addi	r2,r2,-128
  802f14:	1000161e 	bne	r2,zero,802f70 <tick+0x27f8>
  802f18:	d0a748c3 	ldbu	r2,-25309(gp)
  802f1c:	10803fcc 	andi	r2,r2,255
  802f20:	1080201c 	xori	r2,r2,128
  802f24:	10bfe004 	addi	r2,r2,-128
  802f28:	1000111e 	bne	r2,zero,802f70 <tick+0x27f8>
  802f2c:	d0a73183 	ldbu	r2,-25402(gp)
  802f30:	10803fcc 	andi	r2,r2,255
  802f34:	1080201c 	xori	r2,r2,128
  802f38:	10bfe004 	addi	r2,r2,-128
  802f3c:	10000c1e 	bne	r2,zero,802f70 <tick+0x27f8>
  802f40:	d0a74583 	ldbu	r2,-25322(gp)
  802f44:	10803fcc 	andi	r2,r2,255
  802f48:	1080201c 	xori	r2,r2,128
  802f4c:	10bfe004 	addi	r2,r2,-128
  802f50:	1000071e 	bne	r2,zero,802f70 <tick+0x27f8>
  802f54:	d0a75783 	ldbu	r2,-25250(gp)
  802f58:	10803fcc 	andi	r2,r2,255
  802f5c:	1080201c 	xori	r2,r2,128
  802f60:	10bfe004 	addi	r2,r2,-128
  802f64:	1000021e 	bne	r2,zero,802f70 <tick+0x27f8>
  802f68:	00800044 	movi	r2,1
  802f6c:	00000106 	br	802f74 <tick+0x27fc>
  802f70:	0005883a 	mov	r2,zero
  802f74:	d0a760c5 	stb	r2,-25213(gp)
      g68_e4 =(!((g59||g61||g64)));
  802f78:	d0a75b43 	ldbu	r2,-25235(gp)
  802f7c:	10803fcc 	andi	r2,r2,255
  802f80:	1080201c 	xori	r2,r2,128
  802f84:	10bfe004 	addi	r2,r2,-128
  802f88:	10000c1e 	bne	r2,zero,802fbc <tick+0x2844>
  802f8c:	d0a74243 	ldbu	r2,-25335(gp)
  802f90:	10803fcc 	andi	r2,r2,255
  802f94:	1080201c 	xori	r2,r2,128
  802f98:	10bfe004 	addi	r2,r2,-128
  802f9c:	1000071e 	bne	r2,zero,802fbc <tick+0x2844>
  802fa0:	d0a752c3 	ldbu	r2,-25269(gp)
  802fa4:	10803fcc 	andi	r2,r2,255
  802fa8:	1080201c 	xori	r2,r2,128
  802fac:	10bfe004 	addi	r2,r2,-128
  802fb0:	1000021e 	bne	r2,zero,802fbc <tick+0x2844>
  802fb4:	00800044 	movi	r2,1
  802fb8:	00000106 	br	802fc0 <tick+0x2848>
  802fbc:	0005883a 	mov	r2,zero
  802fc0:	d0a74e45 	stb	r2,-25287(gp)
      g88_e5 =(!((g77||g74||g81||g84)));
  802fc4:	d0a78103 	ldbu	r2,-25084(gp)
  802fc8:	10803fcc 	andi	r2,r2,255
  802fcc:	1080201c 	xori	r2,r2,128
  802fd0:	10bfe004 	addi	r2,r2,-128
  802fd4:	1000111e 	bne	r2,zero,80301c <tick+0x28a4>
  802fd8:	d0a78d03 	ldbu	r2,-25036(gp)
  802fdc:	10803fcc 	andi	r2,r2,255
  802fe0:	1080201c 	xori	r2,r2,128
  802fe4:	10bfe004 	addi	r2,r2,-128
  802fe8:	10000c1e 	bne	r2,zero,80301c <tick+0x28a4>
  802fec:	d0a77903 	ldbu	r2,-25116(gp)
  802ff0:	10803fcc 	andi	r2,r2,255
  802ff4:	1080201c 	xori	r2,r2,128
  802ff8:	10bfe004 	addi	r2,r2,-128
  802ffc:	1000071e 	bne	r2,zero,80301c <tick+0x28a4>
  803000:	d0a749c3 	ldbu	r2,-25305(gp)
  803004:	10803fcc 	andi	r2,r2,255
  803008:	1080201c 	xori	r2,r2,128
  80300c:	10bfe004 	addi	r2,r2,-128
  803010:	1000021e 	bne	r2,zero,80301c <tick+0x28a4>
  803014:	00800044 	movi	r2,1
  803018:	00000106 	br	803020 <tick+0x28a8>
  80301c:	0005883a 	mov	r2,zero
  803020:	d0a76445 	stb	r2,-25199(gp)
      g113_e6 =(!((g97||g94||g101||g104||g110)));
  803024:	d0a74543 	ldbu	r2,-25323(gp)
  803028:	10803fcc 	andi	r2,r2,255
  80302c:	1080201c 	xori	r2,r2,128
  803030:	10bfe004 	addi	r2,r2,-128
  803034:	1000161e 	bne	r2,zero,803090 <tick+0x2918>
  803038:	d0a756c3 	ldbu	r2,-25253(gp)
  80303c:	10803fcc 	andi	r2,r2,255
  803040:	1080201c 	xori	r2,r2,128
  803044:	10bfe004 	addi	r2,r2,-128
  803048:	1000111e 	bne	r2,zero,803090 <tick+0x2918>
  80304c:	d0a76003 	ldbu	r2,-25216(gp)
  803050:	10803fcc 	andi	r2,r2,255
  803054:	1080201c 	xori	r2,r2,128
  803058:	10bfe004 	addi	r2,r2,-128
  80305c:	10000c1e 	bne	r2,zero,803090 <tick+0x2918>
  803060:	d0a77543 	ldbu	r2,-25131(gp)
  803064:	10803fcc 	andi	r2,r2,255
  803068:	1080201c 	xori	r2,r2,128
  80306c:	10bfe004 	addi	r2,r2,-128
  803070:	1000071e 	bne	r2,zero,803090 <tick+0x2918>
  803074:	d0a75743 	ldbu	r2,-25251(gp)
  803078:	10803fcc 	andi	r2,r2,255
  80307c:	1080201c 	xori	r2,r2,128
  803080:	10bfe004 	addi	r2,r2,-128
  803084:	1000021e 	bne	r2,zero,803090 <tick+0x2918>
  803088:	00800044 	movi	r2,1
  80308c:	00000106 	br	803094 <tick+0x291c>
  803090:	0005883a 	mov	r2,zero
  803094:	d0a73245 	stb	r2,-25399(gp)
      g139_e7 =(!((g115||g117||g120||g135||g132)));
  803098:	d0a73e43 	ldbu	r2,-25351(gp)
  80309c:	10803fcc 	andi	r2,r2,255
  8030a0:	1080201c 	xori	r2,r2,128
  8030a4:	10bfe004 	addi	r2,r2,-128
  8030a8:	1000161e 	bne	r2,zero,803104 <tick+0x298c>
  8030ac:	d0a75143 	ldbu	r2,-25275(gp)
  8030b0:	10803fcc 	andi	r2,r2,255
  8030b4:	1080201c 	xori	r2,r2,128
  8030b8:	10bfe004 	addi	r2,r2,-128
  8030bc:	1000111e 	bne	r2,zero,803104 <tick+0x298c>
  8030c0:	d0a78543 	ldbu	r2,-25067(gp)
  8030c4:	10803fcc 	andi	r2,r2,255
  8030c8:	1080201c 	xori	r2,r2,128
  8030cc:	10bfe004 	addi	r2,r2,-128
  8030d0:	10000c1e 	bne	r2,zero,803104 <tick+0x298c>
  8030d4:	d0a74283 	ldbu	r2,-25334(gp)
  8030d8:	10803fcc 	andi	r2,r2,255
  8030dc:	1080201c 	xori	r2,r2,128
  8030e0:	10bfe004 	addi	r2,r2,-128
  8030e4:	1000071e 	bne	r2,zero,803104 <tick+0x298c>
  8030e8:	d0a74e03 	ldbu	r2,-25288(gp)
  8030ec:	10803fcc 	andi	r2,r2,255
  8030f0:	1080201c 	xori	r2,r2,128
  8030f4:	10bfe004 	addi	r2,r2,-128
  8030f8:	1000021e 	bne	r2,zero,803104 <tick+0x298c>
  8030fc:	00800044 	movi	r2,1
  803100:	00000106 	br	803108 <tick+0x2990>
  803104:	0005883a 	mov	r2,zero
  803108:	d0a753c5 	stb	r2,-25265(gp)
      g159_e8 =(!((g148||g145||g152||g155)));
  80310c:	d0a75083 	ldbu	r2,-25278(gp)
  803110:	10803fcc 	andi	r2,r2,255
  803114:	1080201c 	xori	r2,r2,128
  803118:	10bfe004 	addi	r2,r2,-128
  80311c:	1000111e 	bne	r2,zero,803164 <tick+0x29ec>
  803120:	d0a73d43 	ldbu	r2,-25355(gp)
  803124:	10803fcc 	andi	r2,r2,255
  803128:	1080201c 	xori	r2,r2,128
  80312c:	10bfe004 	addi	r2,r2,-128
  803130:	10000c1e 	bne	r2,zero,803164 <tick+0x29ec>
  803134:	d0a73343 	ldbu	r2,-25395(gp)
  803138:	10803fcc 	andi	r2,r2,255
  80313c:	1080201c 	xori	r2,r2,128
  803140:	10bfe004 	addi	r2,r2,-128
  803144:	1000071e 	bne	r2,zero,803164 <tick+0x29ec>
  803148:	d0a76043 	ldbu	r2,-25215(gp)
  80314c:	10803fcc 	andi	r2,r2,255
  803150:	1080201c 	xori	r2,r2,128
  803154:	10bfe004 	addi	r2,r2,-128
  803158:	1000021e 	bne	r2,zero,803164 <tick+0x29ec>
  80315c:	00800044 	movi	r2,1
  803160:	00000106 	br	803168 <tick+0x29f0>
  803164:	0005883a 	mov	r2,zero
  803168:	d0a76485 	stb	r2,-25198(gp)
   }
   PRE_g3 = g3;
  80316c:	d0a738c3 	ldbu	r2,-25373(gp)
  803170:	d0a73d05 	stb	r2,-25356(gp)
   PRE_g6 = g6;
  803174:	d0a77843 	ldbu	r2,-25119(gp)
  803178:	d0a76245 	stb	r2,-25207(gp)
   PRE_g10 = g10;
  80317c:	d0a788c3 	ldbu	r2,-25053(gp)
  803180:	d0a74dc5 	stb	r2,-25289(gp)
   PRE_g15 = g15;
  803184:	d0a76603 	ldbu	r2,-25192(gp)
  803188:	d0a77bc5 	stb	r2,-25105(gp)
   PRE_g18 = g18;
  80318c:	d0a74c83 	ldbu	r2,-25294(gp)
  803190:	d0a76205 	stb	r2,-25208(gp)
   PRE_g22 = g22;
  803194:	d0a77e43 	ldbu	r2,-25095(gp)
  803198:	d0a76385 	stb	r2,-25202(gp)
   PRE_g30 = g30;
  80319c:	d0a77b83 	ldbu	r2,-25106(gp)
  8031a0:	d0a78485 	stb	r2,-25070(gp)
   PRE_g33 = g33;
  8031a4:	d0a762c3 	ldbu	r2,-25205(gp)
  8031a8:	d0a77985 	stb	r2,-25114(gp)
   PRE_g37 = g37;
  8031ac:	d0a748c3 	ldbu	r2,-25309(gp)
  8031b0:	d0a78ac5 	stb	r2,-25045(gp)
   PRE_g40 = g40;
  8031b4:	d0a73183 	ldbu	r2,-25402(gp)
  8031b8:	d0a74ac5 	stb	r2,-25301(gp)
   PRE_g49 = g49;
  8031bc:	d0a75783 	ldbu	r2,-25250(gp)
  8031c0:	d0a74b05 	stb	r2,-25300(gp)
   PRE_g52 = g52;
  8031c4:	d0a74583 	ldbu	r2,-25322(gp)
  8031c8:	d0a76145 	stb	r2,-25211(gp)
   PRE_g59 = g59;
  8031cc:	d0a75b43 	ldbu	r2,-25235(gp)
  8031d0:	d0a77f85 	stb	r2,-25090(gp)
   PRE_g61 = g61;
  8031d4:	d0a74243 	ldbu	r2,-25335(gp)
  8031d8:	d0a77445 	stb	r2,-25135(gp)
   PRE_g64 = g64;
  8031dc:	d0a752c3 	ldbu	r2,-25269(gp)
  8031e0:	d0a78445 	stb	r2,-25071(gp)
   PRE_g74 = g74;
  8031e4:	d0a78d03 	ldbu	r2,-25036(gp)
  8031e8:	d0a77185 	stb	r2,-25146(gp)
   PRE_g77 = g77;
  8031ec:	d0a78103 	ldbu	r2,-25084(gp)
  8031f0:	d0a74805 	stb	r2,-25312(gp)
   PRE_g81 = g81;
  8031f4:	d0a77903 	ldbu	r2,-25116(gp)
  8031f8:	d0a74d05 	stb	r2,-25292(gp)
   PRE_g84 = g84;
  8031fc:	d0a749c3 	ldbu	r2,-25305(gp)
  803200:	d0a75f45 	stb	r2,-25219(gp)
   PRE_g94 = g94;
  803204:	d0a756c3 	ldbu	r2,-25253(gp)
  803208:	d0a74c05 	stb	r2,-25296(gp)
   PRE_g97 = g97;
  80320c:	d0a74543 	ldbu	r2,-25323(gp)
  803210:	d0a76a85 	stb	r2,-25174(gp)
   PRE_g101 = g101;
  803214:	d0a76003 	ldbu	r2,-25216(gp)
  803218:	d0a758c5 	stb	r2,-25245(gp)
   PRE_g104 = g104;
  80321c:	d0a77543 	ldbu	r2,-25131(gp)
  803220:	d0a74d85 	stb	r2,-25290(gp)
   PRE_g110 = g110;
  803224:	d0a75743 	ldbu	r2,-25251(gp)
  803228:	d0a779c5 	stb	r2,-25113(gp)
   PRE_g115 = g115;
  80322c:	d0a73e43 	ldbu	r2,-25351(gp)
  803230:	d0a775c5 	stb	r2,-25129(gp)
   PRE_g117 = g117;
  803234:	d0a75143 	ldbu	r2,-25275(gp)
  803238:	d0a78945 	stb	r2,-25051(gp)
   PRE_g120 = g120;
  80323c:	d0a78543 	ldbu	r2,-25067(gp)
  803240:	d0a77b05 	stb	r2,-25108(gp)
   PRE_g132 = g132;
  803244:	d0a74e03 	ldbu	r2,-25288(gp)
  803248:	d0a78885 	stb	r2,-25054(gp)
   PRE_g135 = g135;
  80324c:	d0a74283 	ldbu	r2,-25334(gp)
  803250:	d0a78845 	stb	r2,-25055(gp)
   PRE_g145 = g145;
  803254:	d0a73d43 	ldbu	r2,-25355(gp)
  803258:	d0a770c5 	stb	r2,-25149(gp)
   PRE_g148 = g148;
  80325c:	d0a75083 	ldbu	r2,-25278(gp)
  803260:	d0a75f85 	stb	r2,-25218(gp)
   PRE_g152 = g152;
  803264:	d0a73343 	ldbu	r2,-25395(gp)
  803268:	d0a78085 	stb	r2,-25086(gp)
   PRE_g155 = g155;
  80326c:	d0a76043 	ldbu	r2,-25215(gp)
  803270:	d0a77e85 	stb	r2,-25094(gp)
   _PRE_GO = _GO;
  803274:	d0a76683 	ldbu	r2,-25190(gp)
  803278:	10803fcc 	andi	r2,r2,255
  80327c:	1080201c 	xori	r2,r2,128
  803280:	10bfe004 	addi	r2,r2,-128
  803284:	d0a73c15 	stw	r2,-25360(gp)
   return;
  803288:	0001883a 	nop
}
  80328c:	e037883a 	mov	sp,fp
  803290:	df000017 	ldw	fp,0(sp)
  803294:	dec00104 	addi	sp,sp,4
  803298:	f800283a 	ret

0080329c <_puts_r>:
  80329c:	defff604 	addi	sp,sp,-40
  8032a0:	dc000715 	stw	r16,28(sp)
  8032a4:	2021883a 	mov	r16,r4
  8032a8:	2809883a 	mov	r4,r5
  8032ac:	dc400815 	stw	r17,32(sp)
  8032b0:	dfc00915 	stw	ra,36(sp)
  8032b4:	2823883a 	mov	r17,r5
  8032b8:	08033700 	call	803370 <strlen>
  8032bc:	10c00044 	addi	r3,r2,1
  8032c0:	d8800115 	stw	r2,4(sp)
  8032c4:	00802074 	movhi	r2,129
  8032c8:	10a86304 	addi	r2,r2,-24180
  8032cc:	d8800215 	stw	r2,8(sp)
  8032d0:	00800044 	movi	r2,1
  8032d4:	d8800315 	stw	r2,12(sp)
  8032d8:	00800084 	movi	r2,2
  8032dc:	dc400015 	stw	r17,0(sp)
  8032e0:	d8c00615 	stw	r3,24(sp)
  8032e4:	dec00415 	stw	sp,16(sp)
  8032e8:	d8800515 	stw	r2,20(sp)
  8032ec:	80000226 	beq	r16,zero,8032f8 <_puts_r+0x5c>
  8032f0:	80800e17 	ldw	r2,56(r16)
  8032f4:	10001426 	beq	r2,zero,803348 <_puts_r+0xac>
  8032f8:	81400217 	ldw	r5,8(r16)
  8032fc:	2880030b 	ldhu	r2,12(r5)
  803300:	10c8000c 	andi	r3,r2,8192
  803304:	1800061e 	bne	r3,zero,803320 <_puts_r+0x84>
  803308:	29001917 	ldw	r4,100(r5)
  80330c:	00f7ffc4 	movi	r3,-8193
  803310:	10880014 	ori	r2,r2,8192
  803314:	20c6703a 	and	r3,r4,r3
  803318:	2880030d 	sth	r2,12(r5)
  80331c:	28c01915 	stw	r3,100(r5)
  803320:	d9800404 	addi	r6,sp,16
  803324:	8009883a 	mov	r4,r16
  803328:	08037a80 	call	8037a8 <__sfvwrite_r>
  80332c:	1000091e 	bne	r2,zero,803354 <_puts_r+0xb8>
  803330:	00800284 	movi	r2,10
  803334:	dfc00917 	ldw	ra,36(sp)
  803338:	dc400817 	ldw	r17,32(sp)
  80333c:	dc000717 	ldw	r16,28(sp)
  803340:	dec00a04 	addi	sp,sp,40
  803344:	f800283a 	ret
  803348:	8009883a 	mov	r4,r16
  80334c:	08037580 	call	803758 <__sinit>
  803350:	003fe906 	br	8032f8 <__alt_mem_onchip_mem+0xff7fb2f8>
  803354:	00bfffc4 	movi	r2,-1
  803358:	003ff606 	br	803334 <__alt_mem_onchip_mem+0xff7fb334>

0080335c <puts>:
  80335c:	00802074 	movhi	r2,129
  803360:	10b01d04 	addi	r2,r2,-16268
  803364:	200b883a 	mov	r5,r4
  803368:	11000017 	ldw	r4,0(r2)
  80336c:	080329c1 	jmpi	80329c <_puts_r>

00803370 <strlen>:
  803370:	208000cc 	andi	r2,r4,3
  803374:	10002026 	beq	r2,zero,8033f8 <strlen+0x88>
  803378:	20800007 	ldb	r2,0(r4)
  80337c:	10002026 	beq	r2,zero,803400 <strlen+0x90>
  803380:	2005883a 	mov	r2,r4
  803384:	00000206 	br	803390 <strlen+0x20>
  803388:	10c00007 	ldb	r3,0(r2)
  80338c:	18001826 	beq	r3,zero,8033f0 <strlen+0x80>
  803390:	10800044 	addi	r2,r2,1
  803394:	10c000cc 	andi	r3,r2,3
  803398:	183ffb1e 	bne	r3,zero,803388 <__alt_mem_onchip_mem+0xff7fb388>
  80339c:	10c00017 	ldw	r3,0(r2)
  8033a0:	01ffbff4 	movhi	r7,65279
  8033a4:	39ffbfc4 	addi	r7,r7,-257
  8033a8:	00ca303a 	nor	r5,zero,r3
  8033ac:	01a02074 	movhi	r6,32897
  8033b0:	19c7883a 	add	r3,r3,r7
  8033b4:	31a02004 	addi	r6,r6,-32640
  8033b8:	1946703a 	and	r3,r3,r5
  8033bc:	1986703a 	and	r3,r3,r6
  8033c0:	1800091e 	bne	r3,zero,8033e8 <strlen+0x78>
  8033c4:	10800104 	addi	r2,r2,4
  8033c8:	10c00017 	ldw	r3,0(r2)
  8033cc:	19cb883a 	add	r5,r3,r7
  8033d0:	00c6303a 	nor	r3,zero,r3
  8033d4:	28c6703a 	and	r3,r5,r3
  8033d8:	1986703a 	and	r3,r3,r6
  8033dc:	183ff926 	beq	r3,zero,8033c4 <__alt_mem_onchip_mem+0xff7fb3c4>
  8033e0:	00000106 	br	8033e8 <strlen+0x78>
  8033e4:	10800044 	addi	r2,r2,1
  8033e8:	10c00007 	ldb	r3,0(r2)
  8033ec:	183ffd1e 	bne	r3,zero,8033e4 <__alt_mem_onchip_mem+0xff7fb3e4>
  8033f0:	1105c83a 	sub	r2,r2,r4
  8033f4:	f800283a 	ret
  8033f8:	2005883a 	mov	r2,r4
  8033fc:	003fe706 	br	80339c <__alt_mem_onchip_mem+0xff7fb39c>
  803400:	0005883a 	mov	r2,zero
  803404:	f800283a 	ret

00803408 <__fp_unlock>:
  803408:	0005883a 	mov	r2,zero
  80340c:	f800283a 	ret

00803410 <_cleanup_r>:
  803410:	01402034 	movhi	r5,128
  803414:	2954e904 	addi	r5,r5,21412
  803418:	0803d281 	jmpi	803d28 <_fwalk_reent>

0080341c <__sinit.part.1>:
  80341c:	defff704 	addi	sp,sp,-36
  803420:	00c02034 	movhi	r3,128
  803424:	dfc00815 	stw	ra,32(sp)
  803428:	ddc00715 	stw	r23,28(sp)
  80342c:	dd800615 	stw	r22,24(sp)
  803430:	dd400515 	stw	r21,20(sp)
  803434:	dd000415 	stw	r20,16(sp)
  803438:	dcc00315 	stw	r19,12(sp)
  80343c:	dc800215 	stw	r18,8(sp)
  803440:	dc400115 	stw	r17,4(sp)
  803444:	dc000015 	stw	r16,0(sp)
  803448:	18cd0404 	addi	r3,r3,13328
  80344c:	24000117 	ldw	r16,4(r4)
  803450:	20c00f15 	stw	r3,60(r4)
  803454:	2080bb04 	addi	r2,r4,748
  803458:	00c000c4 	movi	r3,3
  80345c:	20c0b915 	stw	r3,740(r4)
  803460:	2080ba15 	stw	r2,744(r4)
  803464:	2000b815 	stw	zero,736(r4)
  803468:	05c00204 	movi	r23,8
  80346c:	00800104 	movi	r2,4
  803470:	2025883a 	mov	r18,r4
  803474:	b80d883a 	mov	r6,r23
  803478:	81001704 	addi	r4,r16,92
  80347c:	000b883a 	mov	r5,zero
  803480:	80000015 	stw	zero,0(r16)
  803484:	80000115 	stw	zero,4(r16)
  803488:	80000215 	stw	zero,8(r16)
  80348c:	8080030d 	sth	r2,12(r16)
  803490:	80001915 	stw	zero,100(r16)
  803494:	8000038d 	sth	zero,14(r16)
  803498:	80000415 	stw	zero,16(r16)
  80349c:	80000515 	stw	zero,20(r16)
  8034a0:	80000615 	stw	zero,24(r16)
  8034a4:	08049800 	call	804980 <memset>
  8034a8:	05802034 	movhi	r22,128
  8034ac:	94400217 	ldw	r17,8(r18)
  8034b0:	05402034 	movhi	r21,128
  8034b4:	05002034 	movhi	r20,128
  8034b8:	04c02034 	movhi	r19,128
  8034bc:	b5941804 	addi	r22,r22,20576
  8034c0:	ad542f04 	addi	r21,r21,20668
  8034c4:	a5144e04 	addi	r20,r20,20792
  8034c8:	9cd46504 	addi	r19,r19,20884
  8034cc:	85800815 	stw	r22,32(r16)
  8034d0:	85400915 	stw	r21,36(r16)
  8034d4:	85000a15 	stw	r20,40(r16)
  8034d8:	84c00b15 	stw	r19,44(r16)
  8034dc:	84000715 	stw	r16,28(r16)
  8034e0:	00800284 	movi	r2,10
  8034e4:	8880030d 	sth	r2,12(r17)
  8034e8:	00800044 	movi	r2,1
  8034ec:	b80d883a 	mov	r6,r23
  8034f0:	89001704 	addi	r4,r17,92
  8034f4:	000b883a 	mov	r5,zero
  8034f8:	88000015 	stw	zero,0(r17)
  8034fc:	88000115 	stw	zero,4(r17)
  803500:	88000215 	stw	zero,8(r17)
  803504:	88001915 	stw	zero,100(r17)
  803508:	8880038d 	sth	r2,14(r17)
  80350c:	88000415 	stw	zero,16(r17)
  803510:	88000515 	stw	zero,20(r17)
  803514:	88000615 	stw	zero,24(r17)
  803518:	08049800 	call	804980 <memset>
  80351c:	94000317 	ldw	r16,12(r18)
  803520:	00800484 	movi	r2,18
  803524:	8c400715 	stw	r17,28(r17)
  803528:	8d800815 	stw	r22,32(r17)
  80352c:	8d400915 	stw	r21,36(r17)
  803530:	8d000a15 	stw	r20,40(r17)
  803534:	8cc00b15 	stw	r19,44(r17)
  803538:	8080030d 	sth	r2,12(r16)
  80353c:	00800084 	movi	r2,2
  803540:	80000015 	stw	zero,0(r16)
  803544:	80000115 	stw	zero,4(r16)
  803548:	80000215 	stw	zero,8(r16)
  80354c:	80001915 	stw	zero,100(r16)
  803550:	8080038d 	sth	r2,14(r16)
  803554:	80000415 	stw	zero,16(r16)
  803558:	80000515 	stw	zero,20(r16)
  80355c:	80000615 	stw	zero,24(r16)
  803560:	b80d883a 	mov	r6,r23
  803564:	000b883a 	mov	r5,zero
  803568:	81001704 	addi	r4,r16,92
  80356c:	08049800 	call	804980 <memset>
  803570:	00800044 	movi	r2,1
  803574:	84000715 	stw	r16,28(r16)
  803578:	85800815 	stw	r22,32(r16)
  80357c:	85400915 	stw	r21,36(r16)
  803580:	85000a15 	stw	r20,40(r16)
  803584:	84c00b15 	stw	r19,44(r16)
  803588:	90800e15 	stw	r2,56(r18)
  80358c:	dfc00817 	ldw	ra,32(sp)
  803590:	ddc00717 	ldw	r23,28(sp)
  803594:	dd800617 	ldw	r22,24(sp)
  803598:	dd400517 	ldw	r21,20(sp)
  80359c:	dd000417 	ldw	r20,16(sp)
  8035a0:	dcc00317 	ldw	r19,12(sp)
  8035a4:	dc800217 	ldw	r18,8(sp)
  8035a8:	dc400117 	ldw	r17,4(sp)
  8035ac:	dc000017 	ldw	r16,0(sp)
  8035b0:	dec00904 	addi	sp,sp,36
  8035b4:	f800283a 	ret

008035b8 <__fp_lock>:
  8035b8:	0005883a 	mov	r2,zero
  8035bc:	f800283a 	ret

008035c0 <__sfmoreglue>:
  8035c0:	defffc04 	addi	sp,sp,-16
  8035c4:	dc400115 	stw	r17,4(sp)
  8035c8:	2c7fffc4 	addi	r17,r5,-1
  8035cc:	8c401a24 	muli	r17,r17,104
  8035d0:	dc800215 	stw	r18,8(sp)
  8035d4:	2825883a 	mov	r18,r5
  8035d8:	89401d04 	addi	r5,r17,116
  8035dc:	dc000015 	stw	r16,0(sp)
  8035e0:	dfc00315 	stw	ra,12(sp)
  8035e4:	0803dec0 	call	803dec <_malloc_r>
  8035e8:	1021883a 	mov	r16,r2
  8035ec:	10000726 	beq	r2,zero,80360c <__sfmoreglue+0x4c>
  8035f0:	11000304 	addi	r4,r2,12
  8035f4:	10000015 	stw	zero,0(r2)
  8035f8:	14800115 	stw	r18,4(r2)
  8035fc:	11000215 	stw	r4,8(r2)
  803600:	89801a04 	addi	r6,r17,104
  803604:	000b883a 	mov	r5,zero
  803608:	08049800 	call	804980 <memset>
  80360c:	8005883a 	mov	r2,r16
  803610:	dfc00317 	ldw	ra,12(sp)
  803614:	dc800217 	ldw	r18,8(sp)
  803618:	dc400117 	ldw	r17,4(sp)
  80361c:	dc000017 	ldw	r16,0(sp)
  803620:	dec00404 	addi	sp,sp,16
  803624:	f800283a 	ret

00803628 <__sfp>:
  803628:	defffb04 	addi	sp,sp,-20
  80362c:	dc000015 	stw	r16,0(sp)
  803630:	04002074 	movhi	r16,129
  803634:	84301c04 	addi	r16,r16,-16272
  803638:	dcc00315 	stw	r19,12(sp)
  80363c:	2027883a 	mov	r19,r4
  803640:	81000017 	ldw	r4,0(r16)
  803644:	dfc00415 	stw	ra,16(sp)
  803648:	dc800215 	stw	r18,8(sp)
  80364c:	20800e17 	ldw	r2,56(r4)
  803650:	dc400115 	stw	r17,4(sp)
  803654:	1000021e 	bne	r2,zero,803660 <__sfp+0x38>
  803658:	080341c0 	call	80341c <__sinit.part.1>
  80365c:	81000017 	ldw	r4,0(r16)
  803660:	2480b804 	addi	r18,r4,736
  803664:	047fffc4 	movi	r17,-1
  803668:	91000117 	ldw	r4,4(r18)
  80366c:	94000217 	ldw	r16,8(r18)
  803670:	213fffc4 	addi	r4,r4,-1
  803674:	20000a16 	blt	r4,zero,8036a0 <__sfp+0x78>
  803678:	8080030f 	ldh	r2,12(r16)
  80367c:	10000c26 	beq	r2,zero,8036b0 <__sfp+0x88>
  803680:	80c01d04 	addi	r3,r16,116
  803684:	00000206 	br	803690 <__sfp+0x68>
  803688:	18bfe60f 	ldh	r2,-104(r3)
  80368c:	10000826 	beq	r2,zero,8036b0 <__sfp+0x88>
  803690:	213fffc4 	addi	r4,r4,-1
  803694:	1c3ffd04 	addi	r16,r3,-12
  803698:	18c01a04 	addi	r3,r3,104
  80369c:	247ffa1e 	bne	r4,r17,803688 <__alt_mem_onchip_mem+0xff7fb688>
  8036a0:	90800017 	ldw	r2,0(r18)
  8036a4:	10001d26 	beq	r2,zero,80371c <__sfp+0xf4>
  8036a8:	1025883a 	mov	r18,r2
  8036ac:	003fee06 	br	803668 <__alt_mem_onchip_mem+0xff7fb668>
  8036b0:	00bfffc4 	movi	r2,-1
  8036b4:	8080038d 	sth	r2,14(r16)
  8036b8:	00800044 	movi	r2,1
  8036bc:	8080030d 	sth	r2,12(r16)
  8036c0:	80001915 	stw	zero,100(r16)
  8036c4:	80000015 	stw	zero,0(r16)
  8036c8:	80000215 	stw	zero,8(r16)
  8036cc:	80000115 	stw	zero,4(r16)
  8036d0:	80000415 	stw	zero,16(r16)
  8036d4:	80000515 	stw	zero,20(r16)
  8036d8:	80000615 	stw	zero,24(r16)
  8036dc:	01800204 	movi	r6,8
  8036e0:	000b883a 	mov	r5,zero
  8036e4:	81001704 	addi	r4,r16,92
  8036e8:	08049800 	call	804980 <memset>
  8036ec:	8005883a 	mov	r2,r16
  8036f0:	80000c15 	stw	zero,48(r16)
  8036f4:	80000d15 	stw	zero,52(r16)
  8036f8:	80001115 	stw	zero,68(r16)
  8036fc:	80001215 	stw	zero,72(r16)
  803700:	dfc00417 	ldw	ra,16(sp)
  803704:	dcc00317 	ldw	r19,12(sp)
  803708:	dc800217 	ldw	r18,8(sp)
  80370c:	dc400117 	ldw	r17,4(sp)
  803710:	dc000017 	ldw	r16,0(sp)
  803714:	dec00504 	addi	sp,sp,20
  803718:	f800283a 	ret
  80371c:	01400104 	movi	r5,4
  803720:	9809883a 	mov	r4,r19
  803724:	08035c00 	call	8035c0 <__sfmoreglue>
  803728:	90800015 	stw	r2,0(r18)
  80372c:	103fde1e 	bne	r2,zero,8036a8 <__alt_mem_onchip_mem+0xff7fb6a8>
  803730:	00800304 	movi	r2,12
  803734:	98800015 	stw	r2,0(r19)
  803738:	0005883a 	mov	r2,zero
  80373c:	003ff006 	br	803700 <__alt_mem_onchip_mem+0xff7fb700>

00803740 <_cleanup>:
  803740:	00802074 	movhi	r2,129
  803744:	10b01c04 	addi	r2,r2,-16272
  803748:	11000017 	ldw	r4,0(r2)
  80374c:	01402034 	movhi	r5,128
  803750:	2954e904 	addi	r5,r5,21412
  803754:	0803d281 	jmpi	803d28 <_fwalk_reent>

00803758 <__sinit>:
  803758:	20800e17 	ldw	r2,56(r4)
  80375c:	10000126 	beq	r2,zero,803764 <__sinit+0xc>
  803760:	f800283a 	ret
  803764:	080341c1 	jmpi	80341c <__sinit.part.1>

00803768 <__sfp_lock_acquire>:
  803768:	f800283a 	ret

0080376c <__sfp_lock_release>:
  80376c:	f800283a 	ret

00803770 <__sinit_lock_acquire>:
  803770:	f800283a 	ret

00803774 <__sinit_lock_release>:
  803774:	f800283a 	ret

00803778 <__fp_lock_all>:
  803778:	00802074 	movhi	r2,129
  80377c:	10b01d04 	addi	r2,r2,-16268
  803780:	11000017 	ldw	r4,0(r2)
  803784:	01402034 	movhi	r5,128
  803788:	294d6e04 	addi	r5,r5,13752
  80378c:	0803c641 	jmpi	803c64 <_fwalk>

00803790 <__fp_unlock_all>:
  803790:	00802074 	movhi	r2,129
  803794:	10b01d04 	addi	r2,r2,-16268
  803798:	11000017 	ldw	r4,0(r2)
  80379c:	01402034 	movhi	r5,128
  8037a0:	294d0204 	addi	r5,r5,13320
  8037a4:	0803c641 	jmpi	803c64 <_fwalk>

008037a8 <__sfvwrite_r>:
  8037a8:	30800217 	ldw	r2,8(r6)
  8037ac:	10006726 	beq	r2,zero,80394c <__sfvwrite_r+0x1a4>
  8037b0:	28c0030b 	ldhu	r3,12(r5)
  8037b4:	defff404 	addi	sp,sp,-48
  8037b8:	dd400715 	stw	r21,28(sp)
  8037bc:	dd000615 	stw	r20,24(sp)
  8037c0:	dc000215 	stw	r16,8(sp)
  8037c4:	dfc00b15 	stw	ra,44(sp)
  8037c8:	df000a15 	stw	fp,40(sp)
  8037cc:	ddc00915 	stw	r23,36(sp)
  8037d0:	dd800815 	stw	r22,32(sp)
  8037d4:	dcc00515 	stw	r19,20(sp)
  8037d8:	dc800415 	stw	r18,16(sp)
  8037dc:	dc400315 	stw	r17,12(sp)
  8037e0:	1880020c 	andi	r2,r3,8
  8037e4:	2821883a 	mov	r16,r5
  8037e8:	202b883a 	mov	r21,r4
  8037ec:	3029883a 	mov	r20,r6
  8037f0:	10002726 	beq	r2,zero,803890 <__sfvwrite_r+0xe8>
  8037f4:	28800417 	ldw	r2,16(r5)
  8037f8:	10002526 	beq	r2,zero,803890 <__sfvwrite_r+0xe8>
  8037fc:	1880008c 	andi	r2,r3,2
  803800:	a4400017 	ldw	r17,0(r20)
  803804:	10002a26 	beq	r2,zero,8038b0 <__sfvwrite_r+0x108>
  803808:	05a00034 	movhi	r22,32768
  80380c:	0027883a 	mov	r19,zero
  803810:	0025883a 	mov	r18,zero
  803814:	b5bf0004 	addi	r22,r22,-1024
  803818:	980d883a 	mov	r6,r19
  80381c:	a809883a 	mov	r4,r21
  803820:	90004626 	beq	r18,zero,80393c <__sfvwrite_r+0x194>
  803824:	900f883a 	mov	r7,r18
  803828:	b480022e 	bgeu	r22,r18,803834 <__sfvwrite_r+0x8c>
  80382c:	01e00034 	movhi	r7,32768
  803830:	39ff0004 	addi	r7,r7,-1024
  803834:	80800917 	ldw	r2,36(r16)
  803838:	81400717 	ldw	r5,28(r16)
  80383c:	103ee83a 	callr	r2
  803840:	0080570e 	bge	zero,r2,8039a0 <__sfvwrite_r+0x1f8>
  803844:	a0c00217 	ldw	r3,8(r20)
  803848:	98a7883a 	add	r19,r19,r2
  80384c:	90a5c83a 	sub	r18,r18,r2
  803850:	1885c83a 	sub	r2,r3,r2
  803854:	a0800215 	stw	r2,8(r20)
  803858:	103fef1e 	bne	r2,zero,803818 <__alt_mem_onchip_mem+0xff7fb818>
  80385c:	0005883a 	mov	r2,zero
  803860:	dfc00b17 	ldw	ra,44(sp)
  803864:	df000a17 	ldw	fp,40(sp)
  803868:	ddc00917 	ldw	r23,36(sp)
  80386c:	dd800817 	ldw	r22,32(sp)
  803870:	dd400717 	ldw	r21,28(sp)
  803874:	dd000617 	ldw	r20,24(sp)
  803878:	dcc00517 	ldw	r19,20(sp)
  80387c:	dc800417 	ldw	r18,16(sp)
  803880:	dc400317 	ldw	r17,12(sp)
  803884:	dc000217 	ldw	r16,8(sp)
  803888:	dec00c04 	addi	sp,sp,48
  80388c:	f800283a 	ret
  803890:	800b883a 	mov	r5,r16
  803894:	a809883a 	mov	r4,r21
  803898:	08051fc0 	call	8051fc <__swsetup_r>
  80389c:	1000eb1e 	bne	r2,zero,803c4c <__sfvwrite_r+0x4a4>
  8038a0:	80c0030b 	ldhu	r3,12(r16)
  8038a4:	a4400017 	ldw	r17,0(r20)
  8038a8:	1880008c 	andi	r2,r3,2
  8038ac:	103fd61e 	bne	r2,zero,803808 <__alt_mem_onchip_mem+0xff7fb808>
  8038b0:	1880004c 	andi	r2,r3,1
  8038b4:	10003f1e 	bne	r2,zero,8039b4 <__sfvwrite_r+0x20c>
  8038b8:	0039883a 	mov	fp,zero
  8038bc:	0025883a 	mov	r18,zero
  8038c0:	90001a26 	beq	r18,zero,80392c <__sfvwrite_r+0x184>
  8038c4:	1880800c 	andi	r2,r3,512
  8038c8:	84c00217 	ldw	r19,8(r16)
  8038cc:	10002126 	beq	r2,zero,803954 <__sfvwrite_r+0x1ac>
  8038d0:	982f883a 	mov	r23,r19
  8038d4:	94c09336 	bltu	r18,r19,803b24 <__sfvwrite_r+0x37c>
  8038d8:	1881200c 	andi	r2,r3,1152
  8038dc:	10009e1e 	bne	r2,zero,803b58 <__sfvwrite_r+0x3b0>
  8038e0:	81000017 	ldw	r4,0(r16)
  8038e4:	b80d883a 	mov	r6,r23
  8038e8:	e00b883a 	mov	r5,fp
  8038ec:	08048240 	call	804824 <memmove>
  8038f0:	80c00217 	ldw	r3,8(r16)
  8038f4:	81000017 	ldw	r4,0(r16)
  8038f8:	9005883a 	mov	r2,r18
  8038fc:	1ce7c83a 	sub	r19,r3,r19
  803900:	25cf883a 	add	r7,r4,r23
  803904:	84c00215 	stw	r19,8(r16)
  803908:	81c00015 	stw	r7,0(r16)
  80390c:	a0c00217 	ldw	r3,8(r20)
  803910:	e0b9883a 	add	fp,fp,r2
  803914:	90a5c83a 	sub	r18,r18,r2
  803918:	18a7c83a 	sub	r19,r3,r2
  80391c:	a4c00215 	stw	r19,8(r20)
  803920:	983fce26 	beq	r19,zero,80385c <__alt_mem_onchip_mem+0xff7fb85c>
  803924:	80c0030b 	ldhu	r3,12(r16)
  803928:	903fe61e 	bne	r18,zero,8038c4 <__alt_mem_onchip_mem+0xff7fb8c4>
  80392c:	8f000017 	ldw	fp,0(r17)
  803930:	8c800117 	ldw	r18,4(r17)
  803934:	8c400204 	addi	r17,r17,8
  803938:	003fe106 	br	8038c0 <__alt_mem_onchip_mem+0xff7fb8c0>
  80393c:	8cc00017 	ldw	r19,0(r17)
  803940:	8c800117 	ldw	r18,4(r17)
  803944:	8c400204 	addi	r17,r17,8
  803948:	003fb306 	br	803818 <__alt_mem_onchip_mem+0xff7fb818>
  80394c:	0005883a 	mov	r2,zero
  803950:	f800283a 	ret
  803954:	81000017 	ldw	r4,0(r16)
  803958:	80800417 	ldw	r2,16(r16)
  80395c:	11005736 	bltu	r2,r4,803abc <__sfvwrite_r+0x314>
  803960:	85c00517 	ldw	r23,20(r16)
  803964:	95c05536 	bltu	r18,r23,803abc <__sfvwrite_r+0x314>
  803968:	00a00034 	movhi	r2,32768
  80396c:	10bfffc4 	addi	r2,r2,-1
  803970:	9009883a 	mov	r4,r18
  803974:	1480012e 	bgeu	r2,r18,80397c <__sfvwrite_r+0x1d4>
  803978:	1009883a 	mov	r4,r2
  80397c:	b80b883a 	mov	r5,r23
  803980:	0805eb00 	call	805eb0 <__divsi3>
  803984:	15cf383a 	mul	r7,r2,r23
  803988:	81400717 	ldw	r5,28(r16)
  80398c:	80800917 	ldw	r2,36(r16)
  803990:	e00d883a 	mov	r6,fp
  803994:	a809883a 	mov	r4,r21
  803998:	103ee83a 	callr	r2
  80399c:	00bfdb16 	blt	zero,r2,80390c <__alt_mem_onchip_mem+0xff7fb90c>
  8039a0:	8080030b 	ldhu	r2,12(r16)
  8039a4:	10801014 	ori	r2,r2,64
  8039a8:	8080030d 	sth	r2,12(r16)
  8039ac:	00bfffc4 	movi	r2,-1
  8039b0:	003fab06 	br	803860 <__alt_mem_onchip_mem+0xff7fb860>
  8039b4:	0027883a 	mov	r19,zero
  8039b8:	0011883a 	mov	r8,zero
  8039bc:	0039883a 	mov	fp,zero
  8039c0:	0025883a 	mov	r18,zero
  8039c4:	90001f26 	beq	r18,zero,803a44 <__sfvwrite_r+0x29c>
  8039c8:	40005a26 	beq	r8,zero,803b34 <__sfvwrite_r+0x38c>
  8039cc:	982d883a 	mov	r22,r19
  8039d0:	94c0012e 	bgeu	r18,r19,8039d8 <__sfvwrite_r+0x230>
  8039d4:	902d883a 	mov	r22,r18
  8039d8:	81000017 	ldw	r4,0(r16)
  8039dc:	80800417 	ldw	r2,16(r16)
  8039e0:	b02f883a 	mov	r23,r22
  8039e4:	81c00517 	ldw	r7,20(r16)
  8039e8:	1100032e 	bgeu	r2,r4,8039f8 <__sfvwrite_r+0x250>
  8039ec:	80c00217 	ldw	r3,8(r16)
  8039f0:	38c7883a 	add	r3,r7,r3
  8039f4:	1d801816 	blt	r3,r22,803a58 <__sfvwrite_r+0x2b0>
  8039f8:	b1c03e16 	blt	r22,r7,803af4 <__sfvwrite_r+0x34c>
  8039fc:	80800917 	ldw	r2,36(r16)
  803a00:	81400717 	ldw	r5,28(r16)
  803a04:	e00d883a 	mov	r6,fp
  803a08:	da000115 	stw	r8,4(sp)
  803a0c:	a809883a 	mov	r4,r21
  803a10:	103ee83a 	callr	r2
  803a14:	102f883a 	mov	r23,r2
  803a18:	da000117 	ldw	r8,4(sp)
  803a1c:	00bfe00e 	bge	zero,r2,8039a0 <__alt_mem_onchip_mem+0xff7fb9a0>
  803a20:	9de7c83a 	sub	r19,r19,r23
  803a24:	98001f26 	beq	r19,zero,803aa4 <__sfvwrite_r+0x2fc>
  803a28:	a0800217 	ldw	r2,8(r20)
  803a2c:	e5f9883a 	add	fp,fp,r23
  803a30:	95e5c83a 	sub	r18,r18,r23
  803a34:	15efc83a 	sub	r23,r2,r23
  803a38:	a5c00215 	stw	r23,8(r20)
  803a3c:	b83f8726 	beq	r23,zero,80385c <__alt_mem_onchip_mem+0xff7fb85c>
  803a40:	903fe11e 	bne	r18,zero,8039c8 <__alt_mem_onchip_mem+0xff7fb9c8>
  803a44:	8f000017 	ldw	fp,0(r17)
  803a48:	8c800117 	ldw	r18,4(r17)
  803a4c:	0011883a 	mov	r8,zero
  803a50:	8c400204 	addi	r17,r17,8
  803a54:	003fdb06 	br	8039c4 <__alt_mem_onchip_mem+0xff7fb9c4>
  803a58:	180d883a 	mov	r6,r3
  803a5c:	e00b883a 	mov	r5,fp
  803a60:	da000115 	stw	r8,4(sp)
  803a64:	d8c00015 	stw	r3,0(sp)
  803a68:	08048240 	call	804824 <memmove>
  803a6c:	d8c00017 	ldw	r3,0(sp)
  803a70:	80800017 	ldw	r2,0(r16)
  803a74:	800b883a 	mov	r5,r16
  803a78:	a809883a 	mov	r4,r21
  803a7c:	10c5883a 	add	r2,r2,r3
  803a80:	80800015 	stw	r2,0(r16)
  803a84:	d8c00015 	stw	r3,0(sp)
  803a88:	08056c40 	call	8056c4 <_fflush_r>
  803a8c:	d8c00017 	ldw	r3,0(sp)
  803a90:	da000117 	ldw	r8,4(sp)
  803a94:	103fc21e 	bne	r2,zero,8039a0 <__alt_mem_onchip_mem+0xff7fb9a0>
  803a98:	182f883a 	mov	r23,r3
  803a9c:	9de7c83a 	sub	r19,r19,r23
  803aa0:	983fe11e 	bne	r19,zero,803a28 <__alt_mem_onchip_mem+0xff7fba28>
  803aa4:	800b883a 	mov	r5,r16
  803aa8:	a809883a 	mov	r4,r21
  803aac:	08056c40 	call	8056c4 <_fflush_r>
  803ab0:	103fbb1e 	bne	r2,zero,8039a0 <__alt_mem_onchip_mem+0xff7fb9a0>
  803ab4:	0011883a 	mov	r8,zero
  803ab8:	003fdb06 	br	803a28 <__alt_mem_onchip_mem+0xff7fba28>
  803abc:	94c0012e 	bgeu	r18,r19,803ac4 <__sfvwrite_r+0x31c>
  803ac0:	9027883a 	mov	r19,r18
  803ac4:	980d883a 	mov	r6,r19
  803ac8:	e00b883a 	mov	r5,fp
  803acc:	08048240 	call	804824 <memmove>
  803ad0:	80800217 	ldw	r2,8(r16)
  803ad4:	80c00017 	ldw	r3,0(r16)
  803ad8:	14c5c83a 	sub	r2,r2,r19
  803adc:	1cc7883a 	add	r3,r3,r19
  803ae0:	80800215 	stw	r2,8(r16)
  803ae4:	80c00015 	stw	r3,0(r16)
  803ae8:	10004326 	beq	r2,zero,803bf8 <__sfvwrite_r+0x450>
  803aec:	9805883a 	mov	r2,r19
  803af0:	003f8606 	br	80390c <__alt_mem_onchip_mem+0xff7fb90c>
  803af4:	b00d883a 	mov	r6,r22
  803af8:	e00b883a 	mov	r5,fp
  803afc:	da000115 	stw	r8,4(sp)
  803b00:	08048240 	call	804824 <memmove>
  803b04:	80800217 	ldw	r2,8(r16)
  803b08:	80c00017 	ldw	r3,0(r16)
  803b0c:	da000117 	ldw	r8,4(sp)
  803b10:	1585c83a 	sub	r2,r2,r22
  803b14:	1dad883a 	add	r22,r3,r22
  803b18:	80800215 	stw	r2,8(r16)
  803b1c:	85800015 	stw	r22,0(r16)
  803b20:	003fbf06 	br	803a20 <__alt_mem_onchip_mem+0xff7fba20>
  803b24:	81000017 	ldw	r4,0(r16)
  803b28:	9027883a 	mov	r19,r18
  803b2c:	902f883a 	mov	r23,r18
  803b30:	003f6c06 	br	8038e4 <__alt_mem_onchip_mem+0xff7fb8e4>
  803b34:	900d883a 	mov	r6,r18
  803b38:	01400284 	movi	r5,10
  803b3c:	e009883a 	mov	r4,fp
  803b40:	08045f80 	call	8045f8 <memchr>
  803b44:	10003e26 	beq	r2,zero,803c40 <__sfvwrite_r+0x498>
  803b48:	10800044 	addi	r2,r2,1
  803b4c:	1727c83a 	sub	r19,r2,fp
  803b50:	02000044 	movi	r8,1
  803b54:	003f9d06 	br	8039cc <__alt_mem_onchip_mem+0xff7fb9cc>
  803b58:	80800517 	ldw	r2,20(r16)
  803b5c:	81400417 	ldw	r5,16(r16)
  803b60:	81c00017 	ldw	r7,0(r16)
  803b64:	10a7883a 	add	r19,r2,r2
  803b68:	9885883a 	add	r2,r19,r2
  803b6c:	1026d7fa 	srli	r19,r2,31
  803b70:	396dc83a 	sub	r22,r7,r5
  803b74:	b1000044 	addi	r4,r22,1
  803b78:	9885883a 	add	r2,r19,r2
  803b7c:	1027d07a 	srai	r19,r2,1
  803b80:	2485883a 	add	r2,r4,r18
  803b84:	980d883a 	mov	r6,r19
  803b88:	9880022e 	bgeu	r19,r2,803b94 <__sfvwrite_r+0x3ec>
  803b8c:	1027883a 	mov	r19,r2
  803b90:	100d883a 	mov	r6,r2
  803b94:	18c1000c 	andi	r3,r3,1024
  803b98:	18001c26 	beq	r3,zero,803c0c <__sfvwrite_r+0x464>
  803b9c:	300b883a 	mov	r5,r6
  803ba0:	a809883a 	mov	r4,r21
  803ba4:	0803dec0 	call	803dec <_malloc_r>
  803ba8:	102f883a 	mov	r23,r2
  803bac:	10002926 	beq	r2,zero,803c54 <__sfvwrite_r+0x4ac>
  803bb0:	81400417 	ldw	r5,16(r16)
  803bb4:	b00d883a 	mov	r6,r22
  803bb8:	1009883a 	mov	r4,r2
  803bbc:	08046dc0 	call	8046dc <memcpy>
  803bc0:	8080030b 	ldhu	r2,12(r16)
  803bc4:	00fedfc4 	movi	r3,-1153
  803bc8:	10c4703a 	and	r2,r2,r3
  803bcc:	10802014 	ori	r2,r2,128
  803bd0:	8080030d 	sth	r2,12(r16)
  803bd4:	bd89883a 	add	r4,r23,r22
  803bd8:	9d8fc83a 	sub	r7,r19,r22
  803bdc:	85c00415 	stw	r23,16(r16)
  803be0:	84c00515 	stw	r19,20(r16)
  803be4:	81000015 	stw	r4,0(r16)
  803be8:	9027883a 	mov	r19,r18
  803bec:	81c00215 	stw	r7,8(r16)
  803bf0:	902f883a 	mov	r23,r18
  803bf4:	003f3b06 	br	8038e4 <__alt_mem_onchip_mem+0xff7fb8e4>
  803bf8:	800b883a 	mov	r5,r16
  803bfc:	a809883a 	mov	r4,r21
  803c00:	08056c40 	call	8056c4 <_fflush_r>
  803c04:	103fb926 	beq	r2,zero,803aec <__alt_mem_onchip_mem+0xff7fbaec>
  803c08:	003f6506 	br	8039a0 <__alt_mem_onchip_mem+0xff7fb9a0>
  803c0c:	a809883a 	mov	r4,r21
  803c10:	0804aa80 	call	804aa8 <_realloc_r>
  803c14:	102f883a 	mov	r23,r2
  803c18:	103fee1e 	bne	r2,zero,803bd4 <__alt_mem_onchip_mem+0xff7fbbd4>
  803c1c:	81400417 	ldw	r5,16(r16)
  803c20:	a809883a 	mov	r4,r21
  803c24:	08058740 	call	805874 <_free_r>
  803c28:	8080030b 	ldhu	r2,12(r16)
  803c2c:	00ffdfc4 	movi	r3,-129
  803c30:	1884703a 	and	r2,r3,r2
  803c34:	00c00304 	movi	r3,12
  803c38:	a8c00015 	stw	r3,0(r21)
  803c3c:	003f5906 	br	8039a4 <__alt_mem_onchip_mem+0xff7fb9a4>
  803c40:	94c00044 	addi	r19,r18,1
  803c44:	02000044 	movi	r8,1
  803c48:	003f6006 	br	8039cc <__alt_mem_onchip_mem+0xff7fb9cc>
  803c4c:	00bfffc4 	movi	r2,-1
  803c50:	003f0306 	br	803860 <__alt_mem_onchip_mem+0xff7fb860>
  803c54:	00800304 	movi	r2,12
  803c58:	a8800015 	stw	r2,0(r21)
  803c5c:	8080030b 	ldhu	r2,12(r16)
  803c60:	003f5006 	br	8039a4 <__alt_mem_onchip_mem+0xff7fb9a4>

00803c64 <_fwalk>:
  803c64:	defff704 	addi	sp,sp,-36
  803c68:	dd000415 	stw	r20,16(sp)
  803c6c:	dfc00815 	stw	ra,32(sp)
  803c70:	ddc00715 	stw	r23,28(sp)
  803c74:	dd800615 	stw	r22,24(sp)
  803c78:	dd400515 	stw	r21,20(sp)
  803c7c:	dcc00315 	stw	r19,12(sp)
  803c80:	dc800215 	stw	r18,8(sp)
  803c84:	dc400115 	stw	r17,4(sp)
  803c88:	dc000015 	stw	r16,0(sp)
  803c8c:	2500b804 	addi	r20,r4,736
  803c90:	a0002326 	beq	r20,zero,803d20 <_fwalk+0xbc>
  803c94:	282b883a 	mov	r21,r5
  803c98:	002f883a 	mov	r23,zero
  803c9c:	05800044 	movi	r22,1
  803ca0:	04ffffc4 	movi	r19,-1
  803ca4:	a4400117 	ldw	r17,4(r20)
  803ca8:	a4800217 	ldw	r18,8(r20)
  803cac:	8c7fffc4 	addi	r17,r17,-1
  803cb0:	88000d16 	blt	r17,zero,803ce8 <_fwalk+0x84>
  803cb4:	94000304 	addi	r16,r18,12
  803cb8:	94800384 	addi	r18,r18,14
  803cbc:	8080000b 	ldhu	r2,0(r16)
  803cc0:	8c7fffc4 	addi	r17,r17,-1
  803cc4:	813ffd04 	addi	r4,r16,-12
  803cc8:	b080042e 	bgeu	r22,r2,803cdc <_fwalk+0x78>
  803ccc:	9080000f 	ldh	r2,0(r18)
  803cd0:	14c00226 	beq	r2,r19,803cdc <_fwalk+0x78>
  803cd4:	a83ee83a 	callr	r21
  803cd8:	b8aeb03a 	or	r23,r23,r2
  803cdc:	84001a04 	addi	r16,r16,104
  803ce0:	94801a04 	addi	r18,r18,104
  803ce4:	8cfff51e 	bne	r17,r19,803cbc <__alt_mem_onchip_mem+0xff7fbcbc>
  803ce8:	a5000017 	ldw	r20,0(r20)
  803cec:	a03fed1e 	bne	r20,zero,803ca4 <__alt_mem_onchip_mem+0xff7fbca4>
  803cf0:	b805883a 	mov	r2,r23
  803cf4:	dfc00817 	ldw	ra,32(sp)
  803cf8:	ddc00717 	ldw	r23,28(sp)
  803cfc:	dd800617 	ldw	r22,24(sp)
  803d00:	dd400517 	ldw	r21,20(sp)
  803d04:	dd000417 	ldw	r20,16(sp)
  803d08:	dcc00317 	ldw	r19,12(sp)
  803d0c:	dc800217 	ldw	r18,8(sp)
  803d10:	dc400117 	ldw	r17,4(sp)
  803d14:	dc000017 	ldw	r16,0(sp)
  803d18:	dec00904 	addi	sp,sp,36
  803d1c:	f800283a 	ret
  803d20:	002f883a 	mov	r23,zero
  803d24:	003ff206 	br	803cf0 <__alt_mem_onchip_mem+0xff7fbcf0>

00803d28 <_fwalk_reent>:
  803d28:	defff704 	addi	sp,sp,-36
  803d2c:	dd000415 	stw	r20,16(sp)
  803d30:	dfc00815 	stw	ra,32(sp)
  803d34:	ddc00715 	stw	r23,28(sp)
  803d38:	dd800615 	stw	r22,24(sp)
  803d3c:	dd400515 	stw	r21,20(sp)
  803d40:	dcc00315 	stw	r19,12(sp)
  803d44:	dc800215 	stw	r18,8(sp)
  803d48:	dc400115 	stw	r17,4(sp)
  803d4c:	dc000015 	stw	r16,0(sp)
  803d50:	2500b804 	addi	r20,r4,736
  803d54:	a0002326 	beq	r20,zero,803de4 <_fwalk_reent+0xbc>
  803d58:	282b883a 	mov	r21,r5
  803d5c:	2027883a 	mov	r19,r4
  803d60:	002f883a 	mov	r23,zero
  803d64:	05800044 	movi	r22,1
  803d68:	04bfffc4 	movi	r18,-1
  803d6c:	a4400117 	ldw	r17,4(r20)
  803d70:	a4000217 	ldw	r16,8(r20)
  803d74:	8c7fffc4 	addi	r17,r17,-1
  803d78:	88000c16 	blt	r17,zero,803dac <_fwalk_reent+0x84>
  803d7c:	84000304 	addi	r16,r16,12
  803d80:	8080000b 	ldhu	r2,0(r16)
  803d84:	8c7fffc4 	addi	r17,r17,-1
  803d88:	817ffd04 	addi	r5,r16,-12
  803d8c:	b080052e 	bgeu	r22,r2,803da4 <_fwalk_reent+0x7c>
  803d90:	8080008f 	ldh	r2,2(r16)
  803d94:	9809883a 	mov	r4,r19
  803d98:	14800226 	beq	r2,r18,803da4 <_fwalk_reent+0x7c>
  803d9c:	a83ee83a 	callr	r21
  803da0:	b8aeb03a 	or	r23,r23,r2
  803da4:	84001a04 	addi	r16,r16,104
  803da8:	8cbff51e 	bne	r17,r18,803d80 <__alt_mem_onchip_mem+0xff7fbd80>
  803dac:	a5000017 	ldw	r20,0(r20)
  803db0:	a03fee1e 	bne	r20,zero,803d6c <__alt_mem_onchip_mem+0xff7fbd6c>
  803db4:	b805883a 	mov	r2,r23
  803db8:	dfc00817 	ldw	ra,32(sp)
  803dbc:	ddc00717 	ldw	r23,28(sp)
  803dc0:	dd800617 	ldw	r22,24(sp)
  803dc4:	dd400517 	ldw	r21,20(sp)
  803dc8:	dd000417 	ldw	r20,16(sp)
  803dcc:	dcc00317 	ldw	r19,12(sp)
  803dd0:	dc800217 	ldw	r18,8(sp)
  803dd4:	dc400117 	ldw	r17,4(sp)
  803dd8:	dc000017 	ldw	r16,0(sp)
  803ddc:	dec00904 	addi	sp,sp,36
  803de0:	f800283a 	ret
  803de4:	002f883a 	mov	r23,zero
  803de8:	003ff206 	br	803db4 <__alt_mem_onchip_mem+0xff7fbdb4>

00803dec <_malloc_r>:
  803dec:	defff504 	addi	sp,sp,-44
  803df0:	dc800315 	stw	r18,12(sp)
  803df4:	dfc00a15 	stw	ra,40(sp)
  803df8:	df000915 	stw	fp,36(sp)
  803dfc:	ddc00815 	stw	r23,32(sp)
  803e00:	dd800715 	stw	r22,28(sp)
  803e04:	dd400615 	stw	r21,24(sp)
  803e08:	dd000515 	stw	r20,20(sp)
  803e0c:	dcc00415 	stw	r19,16(sp)
  803e10:	dc400215 	stw	r17,8(sp)
  803e14:	dc000115 	stw	r16,4(sp)
  803e18:	288002c4 	addi	r2,r5,11
  803e1c:	00c00584 	movi	r3,22
  803e20:	2025883a 	mov	r18,r4
  803e24:	18807f2e 	bgeu	r3,r2,804024 <_malloc_r+0x238>
  803e28:	047ffe04 	movi	r17,-8
  803e2c:	1462703a 	and	r17,r2,r17
  803e30:	8800a316 	blt	r17,zero,8040c0 <_malloc_r+0x2d4>
  803e34:	8940a236 	bltu	r17,r5,8040c0 <_malloc_r+0x2d4>
  803e38:	080670c0 	call	80670c <__malloc_lock>
  803e3c:	00807dc4 	movi	r2,503
  803e40:	1441e92e 	bgeu	r2,r17,8045e8 <_malloc_r+0x7fc>
  803e44:	8804d27a 	srli	r2,r17,9
  803e48:	1000a126 	beq	r2,zero,8040d0 <_malloc_r+0x2e4>
  803e4c:	00c00104 	movi	r3,4
  803e50:	18811e36 	bltu	r3,r2,8042cc <_malloc_r+0x4e0>
  803e54:	8804d1ba 	srli	r2,r17,6
  803e58:	12000e44 	addi	r8,r2,57
  803e5c:	11c00e04 	addi	r7,r2,56
  803e60:	4209883a 	add	r4,r8,r8
  803e64:	04c02074 	movhi	r19,129
  803e68:	2109883a 	add	r4,r4,r4
  803e6c:	9cea1f04 	addi	r19,r19,-22404
  803e70:	2109883a 	add	r4,r4,r4
  803e74:	9909883a 	add	r4,r19,r4
  803e78:	24000117 	ldw	r16,4(r4)
  803e7c:	213ffe04 	addi	r4,r4,-8
  803e80:	24009726 	beq	r4,r16,8040e0 <_malloc_r+0x2f4>
  803e84:	80800117 	ldw	r2,4(r16)
  803e88:	01bfff04 	movi	r6,-4
  803e8c:	014003c4 	movi	r5,15
  803e90:	1184703a 	and	r2,r2,r6
  803e94:	1447c83a 	sub	r3,r2,r17
  803e98:	28c00716 	blt	r5,r3,803eb8 <_malloc_r+0xcc>
  803e9c:	1800920e 	bge	r3,zero,8040e8 <_malloc_r+0x2fc>
  803ea0:	84000317 	ldw	r16,12(r16)
  803ea4:	24008e26 	beq	r4,r16,8040e0 <_malloc_r+0x2f4>
  803ea8:	80800117 	ldw	r2,4(r16)
  803eac:	1184703a 	and	r2,r2,r6
  803eb0:	1447c83a 	sub	r3,r2,r17
  803eb4:	28fff90e 	bge	r5,r3,803e9c <__alt_mem_onchip_mem+0xff7fbe9c>
  803eb8:	3809883a 	mov	r4,r7
  803ebc:	01802074 	movhi	r6,129
  803ec0:	9c000417 	ldw	r16,16(r19)
  803ec4:	31aa1f04 	addi	r6,r6,-22404
  803ec8:	32000204 	addi	r8,r6,8
  803ecc:	82013426 	beq	r16,r8,8043a0 <_malloc_r+0x5b4>
  803ed0:	80c00117 	ldw	r3,4(r16)
  803ed4:	00bfff04 	movi	r2,-4
  803ed8:	188e703a 	and	r7,r3,r2
  803edc:	3c45c83a 	sub	r2,r7,r17
  803ee0:	00c003c4 	movi	r3,15
  803ee4:	18811f16 	blt	r3,r2,804364 <_malloc_r+0x578>
  803ee8:	32000515 	stw	r8,20(r6)
  803eec:	32000415 	stw	r8,16(r6)
  803ef0:	10007f0e 	bge	r2,zero,8040f0 <_malloc_r+0x304>
  803ef4:	00807fc4 	movi	r2,511
  803ef8:	11c0fd36 	bltu	r2,r7,8042f0 <_malloc_r+0x504>
  803efc:	3806d0fa 	srli	r3,r7,3
  803f00:	01c00044 	movi	r7,1
  803f04:	30800117 	ldw	r2,4(r6)
  803f08:	19400044 	addi	r5,r3,1
  803f0c:	294b883a 	add	r5,r5,r5
  803f10:	1807d0ba 	srai	r3,r3,2
  803f14:	294b883a 	add	r5,r5,r5
  803f18:	294b883a 	add	r5,r5,r5
  803f1c:	298b883a 	add	r5,r5,r6
  803f20:	38c6983a 	sll	r3,r7,r3
  803f24:	29c00017 	ldw	r7,0(r5)
  803f28:	2a7ffe04 	addi	r9,r5,-8
  803f2c:	1886b03a 	or	r3,r3,r2
  803f30:	82400315 	stw	r9,12(r16)
  803f34:	81c00215 	stw	r7,8(r16)
  803f38:	30c00115 	stw	r3,4(r6)
  803f3c:	2c000015 	stw	r16,0(r5)
  803f40:	3c000315 	stw	r16,12(r7)
  803f44:	2005d0ba 	srai	r2,r4,2
  803f48:	01400044 	movi	r5,1
  803f4c:	288a983a 	sll	r5,r5,r2
  803f50:	19406f36 	bltu	r3,r5,804110 <_malloc_r+0x324>
  803f54:	28c4703a 	and	r2,r5,r3
  803f58:	10000a1e 	bne	r2,zero,803f84 <_malloc_r+0x198>
  803f5c:	00bfff04 	movi	r2,-4
  803f60:	294b883a 	add	r5,r5,r5
  803f64:	2088703a 	and	r4,r4,r2
  803f68:	28c4703a 	and	r2,r5,r3
  803f6c:	21000104 	addi	r4,r4,4
  803f70:	1000041e 	bne	r2,zero,803f84 <_malloc_r+0x198>
  803f74:	294b883a 	add	r5,r5,r5
  803f78:	28c4703a 	and	r2,r5,r3
  803f7c:	21000104 	addi	r4,r4,4
  803f80:	103ffc26 	beq	r2,zero,803f74 <__alt_mem_onchip_mem+0xff7fbf74>
  803f84:	02bfff04 	movi	r10,-4
  803f88:	024003c4 	movi	r9,15
  803f8c:	21800044 	addi	r6,r4,1
  803f90:	318d883a 	add	r6,r6,r6
  803f94:	318d883a 	add	r6,r6,r6
  803f98:	318d883a 	add	r6,r6,r6
  803f9c:	998d883a 	add	r6,r19,r6
  803fa0:	333ffe04 	addi	r12,r6,-8
  803fa4:	2017883a 	mov	r11,r4
  803fa8:	31800104 	addi	r6,r6,4
  803fac:	34000017 	ldw	r16,0(r6)
  803fb0:	31fffd04 	addi	r7,r6,-12
  803fb4:	81c0041e 	bne	r16,r7,803fc8 <_malloc_r+0x1dc>
  803fb8:	0000fb06 	br	8043a8 <_malloc_r+0x5bc>
  803fbc:	1801030e 	bge	r3,zero,8043cc <_malloc_r+0x5e0>
  803fc0:	84000317 	ldw	r16,12(r16)
  803fc4:	81c0f826 	beq	r16,r7,8043a8 <_malloc_r+0x5bc>
  803fc8:	80800117 	ldw	r2,4(r16)
  803fcc:	1284703a 	and	r2,r2,r10
  803fd0:	1447c83a 	sub	r3,r2,r17
  803fd4:	48fff90e 	bge	r9,r3,803fbc <__alt_mem_onchip_mem+0xff7fbfbc>
  803fd8:	80800317 	ldw	r2,12(r16)
  803fdc:	81000217 	ldw	r4,8(r16)
  803fe0:	89400054 	ori	r5,r17,1
  803fe4:	81400115 	stw	r5,4(r16)
  803fe8:	20800315 	stw	r2,12(r4)
  803fec:	11000215 	stw	r4,8(r2)
  803ff0:	8463883a 	add	r17,r16,r17
  803ff4:	9c400515 	stw	r17,20(r19)
  803ff8:	9c400415 	stw	r17,16(r19)
  803ffc:	18800054 	ori	r2,r3,1
  804000:	88800115 	stw	r2,4(r17)
  804004:	8a000315 	stw	r8,12(r17)
  804008:	8a000215 	stw	r8,8(r17)
  80400c:	88e3883a 	add	r17,r17,r3
  804010:	88c00015 	stw	r3,0(r17)
  804014:	9009883a 	mov	r4,r18
  804018:	08067300 	call	806730 <__malloc_unlock>
  80401c:	80800204 	addi	r2,r16,8
  804020:	00001b06 	br	804090 <_malloc_r+0x2a4>
  804024:	04400404 	movi	r17,16
  804028:	89402536 	bltu	r17,r5,8040c0 <_malloc_r+0x2d4>
  80402c:	080670c0 	call	80670c <__malloc_lock>
  804030:	00800184 	movi	r2,6
  804034:	01000084 	movi	r4,2
  804038:	04c02074 	movhi	r19,129
  80403c:	1085883a 	add	r2,r2,r2
  804040:	9cea1f04 	addi	r19,r19,-22404
  804044:	1085883a 	add	r2,r2,r2
  804048:	9885883a 	add	r2,r19,r2
  80404c:	14000117 	ldw	r16,4(r2)
  804050:	10fffe04 	addi	r3,r2,-8
  804054:	80c0d926 	beq	r16,r3,8043bc <_malloc_r+0x5d0>
  804058:	80c00117 	ldw	r3,4(r16)
  80405c:	81000317 	ldw	r4,12(r16)
  804060:	00bfff04 	movi	r2,-4
  804064:	1884703a 	and	r2,r3,r2
  804068:	81400217 	ldw	r5,8(r16)
  80406c:	8085883a 	add	r2,r16,r2
  804070:	10c00117 	ldw	r3,4(r2)
  804074:	29000315 	stw	r4,12(r5)
  804078:	21400215 	stw	r5,8(r4)
  80407c:	18c00054 	ori	r3,r3,1
  804080:	10c00115 	stw	r3,4(r2)
  804084:	9009883a 	mov	r4,r18
  804088:	08067300 	call	806730 <__malloc_unlock>
  80408c:	80800204 	addi	r2,r16,8
  804090:	dfc00a17 	ldw	ra,40(sp)
  804094:	df000917 	ldw	fp,36(sp)
  804098:	ddc00817 	ldw	r23,32(sp)
  80409c:	dd800717 	ldw	r22,28(sp)
  8040a0:	dd400617 	ldw	r21,24(sp)
  8040a4:	dd000517 	ldw	r20,20(sp)
  8040a8:	dcc00417 	ldw	r19,16(sp)
  8040ac:	dc800317 	ldw	r18,12(sp)
  8040b0:	dc400217 	ldw	r17,8(sp)
  8040b4:	dc000117 	ldw	r16,4(sp)
  8040b8:	dec00b04 	addi	sp,sp,44
  8040bc:	f800283a 	ret
  8040c0:	00800304 	movi	r2,12
  8040c4:	90800015 	stw	r2,0(r18)
  8040c8:	0005883a 	mov	r2,zero
  8040cc:	003ff006 	br	804090 <__alt_mem_onchip_mem+0xff7fc090>
  8040d0:	01002004 	movi	r4,128
  8040d4:	02001004 	movi	r8,64
  8040d8:	01c00fc4 	movi	r7,63
  8040dc:	003f6106 	br	803e64 <__alt_mem_onchip_mem+0xff7fbe64>
  8040e0:	4009883a 	mov	r4,r8
  8040e4:	003f7506 	br	803ebc <__alt_mem_onchip_mem+0xff7fbebc>
  8040e8:	81000317 	ldw	r4,12(r16)
  8040ec:	003fde06 	br	804068 <__alt_mem_onchip_mem+0xff7fc068>
  8040f0:	81c5883a 	add	r2,r16,r7
  8040f4:	11400117 	ldw	r5,4(r2)
  8040f8:	9009883a 	mov	r4,r18
  8040fc:	29400054 	ori	r5,r5,1
  804100:	11400115 	stw	r5,4(r2)
  804104:	08067300 	call	806730 <__malloc_unlock>
  804108:	80800204 	addi	r2,r16,8
  80410c:	003fe006 	br	804090 <__alt_mem_onchip_mem+0xff7fc090>
  804110:	9c000217 	ldw	r16,8(r19)
  804114:	00bfff04 	movi	r2,-4
  804118:	85800117 	ldw	r22,4(r16)
  80411c:	b0ac703a 	and	r22,r22,r2
  804120:	b4400336 	bltu	r22,r17,804130 <_malloc_r+0x344>
  804124:	b445c83a 	sub	r2,r22,r17
  804128:	00c003c4 	movi	r3,15
  80412c:	18805d16 	blt	r3,r2,8042a4 <_malloc_r+0x4b8>
  804130:	05c02074 	movhi	r23,129
  804134:	00802074 	movhi	r2,129
  804138:	10b7ac04 	addi	r2,r2,-8528
  80413c:	bdf01e04 	addi	r23,r23,-16264
  804140:	15400017 	ldw	r21,0(r2)
  804144:	b8c00017 	ldw	r3,0(r23)
  804148:	00bfffc4 	movi	r2,-1
  80414c:	858d883a 	add	r6,r16,r22
  804150:	8d6b883a 	add	r21,r17,r21
  804154:	1880ea26 	beq	r3,r2,804500 <_malloc_r+0x714>
  804158:	ad4403c4 	addi	r21,r21,4111
  80415c:	00bc0004 	movi	r2,-4096
  804160:	a8aa703a 	and	r21,r21,r2
  804164:	a80b883a 	mov	r5,r21
  804168:	9009883a 	mov	r4,r18
  80416c:	d9800015 	stw	r6,0(sp)
  804170:	080500c0 	call	80500c <_sbrk_r>
  804174:	1029883a 	mov	r20,r2
  804178:	00bfffc4 	movi	r2,-1
  80417c:	d9800017 	ldw	r6,0(sp)
  804180:	a080e826 	beq	r20,r2,804524 <_malloc_r+0x738>
  804184:	a180a636 	bltu	r20,r6,804420 <_malloc_r+0x634>
  804188:	07002074 	movhi	fp,129
  80418c:	e737b504 	addi	fp,fp,-8492
  804190:	e0800017 	ldw	r2,0(fp)
  804194:	a887883a 	add	r3,r21,r2
  804198:	e0c00015 	stw	r3,0(fp)
  80419c:	3500e626 	beq	r6,r20,804538 <_malloc_r+0x74c>
  8041a0:	b9000017 	ldw	r4,0(r23)
  8041a4:	00bfffc4 	movi	r2,-1
  8041a8:	2080ee26 	beq	r4,r2,804564 <_malloc_r+0x778>
  8041ac:	a185c83a 	sub	r2,r20,r6
  8041b0:	10c5883a 	add	r2,r2,r3
  8041b4:	e0800015 	stw	r2,0(fp)
  8041b8:	a0c001cc 	andi	r3,r20,7
  8041bc:	1800bc26 	beq	r3,zero,8044b0 <_malloc_r+0x6c4>
  8041c0:	a0e9c83a 	sub	r20,r20,r3
  8041c4:	00840204 	movi	r2,4104
  8041c8:	a5000204 	addi	r20,r20,8
  8041cc:	10c7c83a 	sub	r3,r2,r3
  8041d0:	a545883a 	add	r2,r20,r21
  8041d4:	1083ffcc 	andi	r2,r2,4095
  8041d8:	18abc83a 	sub	r21,r3,r2
  8041dc:	a80b883a 	mov	r5,r21
  8041e0:	9009883a 	mov	r4,r18
  8041e4:	080500c0 	call	80500c <_sbrk_r>
  8041e8:	00ffffc4 	movi	r3,-1
  8041ec:	10c0e126 	beq	r2,r3,804574 <_malloc_r+0x788>
  8041f0:	1505c83a 	sub	r2,r2,r20
  8041f4:	1545883a 	add	r2,r2,r21
  8041f8:	10800054 	ori	r2,r2,1
  8041fc:	e0c00017 	ldw	r3,0(fp)
  804200:	9d000215 	stw	r20,8(r19)
  804204:	a0800115 	stw	r2,4(r20)
  804208:	a8c7883a 	add	r3,r21,r3
  80420c:	e0c00015 	stw	r3,0(fp)
  804210:	84c00e26 	beq	r16,r19,80424c <_malloc_r+0x460>
  804214:	018003c4 	movi	r6,15
  804218:	3580a72e 	bgeu	r6,r22,8044b8 <_malloc_r+0x6cc>
  80421c:	81400117 	ldw	r5,4(r16)
  804220:	013ffe04 	movi	r4,-8
  804224:	b0bffd04 	addi	r2,r22,-12
  804228:	1104703a 	and	r2,r2,r4
  80422c:	2900004c 	andi	r4,r5,1
  804230:	2088b03a 	or	r4,r4,r2
  804234:	81000115 	stw	r4,4(r16)
  804238:	01400144 	movi	r5,5
  80423c:	8089883a 	add	r4,r16,r2
  804240:	21400115 	stw	r5,4(r4)
  804244:	21400215 	stw	r5,8(r4)
  804248:	3080cd36 	bltu	r6,r2,804580 <_malloc_r+0x794>
  80424c:	00802074 	movhi	r2,129
  804250:	10b7ab04 	addi	r2,r2,-8532
  804254:	11000017 	ldw	r4,0(r2)
  804258:	20c0012e 	bgeu	r4,r3,804260 <_malloc_r+0x474>
  80425c:	10c00015 	stw	r3,0(r2)
  804260:	00802074 	movhi	r2,129
  804264:	10b7aa04 	addi	r2,r2,-8536
  804268:	11000017 	ldw	r4,0(r2)
  80426c:	9c000217 	ldw	r16,8(r19)
  804270:	20c0012e 	bgeu	r4,r3,804278 <_malloc_r+0x48c>
  804274:	10c00015 	stw	r3,0(r2)
  804278:	80c00117 	ldw	r3,4(r16)
  80427c:	00bfff04 	movi	r2,-4
  804280:	1886703a 	and	r3,r3,r2
  804284:	1c45c83a 	sub	r2,r3,r17
  804288:	1c400236 	bltu	r3,r17,804294 <_malloc_r+0x4a8>
  80428c:	00c003c4 	movi	r3,15
  804290:	18800416 	blt	r3,r2,8042a4 <_malloc_r+0x4b8>
  804294:	9009883a 	mov	r4,r18
  804298:	08067300 	call	806730 <__malloc_unlock>
  80429c:	0005883a 	mov	r2,zero
  8042a0:	003f7b06 	br	804090 <__alt_mem_onchip_mem+0xff7fc090>
  8042a4:	88c00054 	ori	r3,r17,1
  8042a8:	80c00115 	stw	r3,4(r16)
  8042ac:	8463883a 	add	r17,r16,r17
  8042b0:	10800054 	ori	r2,r2,1
  8042b4:	9c400215 	stw	r17,8(r19)
  8042b8:	88800115 	stw	r2,4(r17)
  8042bc:	9009883a 	mov	r4,r18
  8042c0:	08067300 	call	806730 <__malloc_unlock>
  8042c4:	80800204 	addi	r2,r16,8
  8042c8:	003f7106 	br	804090 <__alt_mem_onchip_mem+0xff7fc090>
  8042cc:	00c00504 	movi	r3,20
  8042d0:	18804a2e 	bgeu	r3,r2,8043fc <_malloc_r+0x610>
  8042d4:	00c01504 	movi	r3,84
  8042d8:	18806e36 	bltu	r3,r2,804494 <_malloc_r+0x6a8>
  8042dc:	8804d33a 	srli	r2,r17,12
  8042e0:	12001bc4 	addi	r8,r2,111
  8042e4:	11c01b84 	addi	r7,r2,110
  8042e8:	4209883a 	add	r4,r8,r8
  8042ec:	003edd06 	br	803e64 <__alt_mem_onchip_mem+0xff7fbe64>
  8042f0:	3804d27a 	srli	r2,r7,9
  8042f4:	00c00104 	movi	r3,4
  8042f8:	1880442e 	bgeu	r3,r2,80440c <_malloc_r+0x620>
  8042fc:	00c00504 	movi	r3,20
  804300:	18808136 	bltu	r3,r2,804508 <_malloc_r+0x71c>
  804304:	11401704 	addi	r5,r2,92
  804308:	10c016c4 	addi	r3,r2,91
  80430c:	294b883a 	add	r5,r5,r5
  804310:	294b883a 	add	r5,r5,r5
  804314:	294b883a 	add	r5,r5,r5
  804318:	994b883a 	add	r5,r19,r5
  80431c:	28800017 	ldw	r2,0(r5)
  804320:	01802074 	movhi	r6,129
  804324:	297ffe04 	addi	r5,r5,-8
  804328:	31aa1f04 	addi	r6,r6,-22404
  80432c:	28806526 	beq	r5,r2,8044c4 <_malloc_r+0x6d8>
  804330:	01bfff04 	movi	r6,-4
  804334:	10c00117 	ldw	r3,4(r2)
  804338:	1986703a 	and	r3,r3,r6
  80433c:	38c0022e 	bgeu	r7,r3,804348 <_malloc_r+0x55c>
  804340:	10800217 	ldw	r2,8(r2)
  804344:	28bffb1e 	bne	r5,r2,804334 <__alt_mem_onchip_mem+0xff7fc334>
  804348:	11400317 	ldw	r5,12(r2)
  80434c:	98c00117 	ldw	r3,4(r19)
  804350:	81400315 	stw	r5,12(r16)
  804354:	80800215 	stw	r2,8(r16)
  804358:	2c000215 	stw	r16,8(r5)
  80435c:	14000315 	stw	r16,12(r2)
  804360:	003ef806 	br	803f44 <__alt_mem_onchip_mem+0xff7fbf44>
  804364:	88c00054 	ori	r3,r17,1
  804368:	80c00115 	stw	r3,4(r16)
  80436c:	8463883a 	add	r17,r16,r17
  804370:	34400515 	stw	r17,20(r6)
  804374:	34400415 	stw	r17,16(r6)
  804378:	10c00054 	ori	r3,r2,1
  80437c:	8a000315 	stw	r8,12(r17)
  804380:	8a000215 	stw	r8,8(r17)
  804384:	88c00115 	stw	r3,4(r17)
  804388:	88a3883a 	add	r17,r17,r2
  80438c:	88800015 	stw	r2,0(r17)
  804390:	9009883a 	mov	r4,r18
  804394:	08067300 	call	806730 <__malloc_unlock>
  804398:	80800204 	addi	r2,r16,8
  80439c:	003f3c06 	br	804090 <__alt_mem_onchip_mem+0xff7fc090>
  8043a0:	30c00117 	ldw	r3,4(r6)
  8043a4:	003ee706 	br	803f44 <__alt_mem_onchip_mem+0xff7fbf44>
  8043a8:	5ac00044 	addi	r11,r11,1
  8043ac:	588000cc 	andi	r2,r11,3
  8043b0:	31800204 	addi	r6,r6,8
  8043b4:	103efd1e 	bne	r2,zero,803fac <__alt_mem_onchip_mem+0xff7fbfac>
  8043b8:	00002406 	br	80444c <_malloc_r+0x660>
  8043bc:	14000317 	ldw	r16,12(r2)
  8043c0:	143f251e 	bne	r2,r16,804058 <__alt_mem_onchip_mem+0xff7fc058>
  8043c4:	21000084 	addi	r4,r4,2
  8043c8:	003ebc06 	br	803ebc <__alt_mem_onchip_mem+0xff7fbebc>
  8043cc:	8085883a 	add	r2,r16,r2
  8043d0:	10c00117 	ldw	r3,4(r2)
  8043d4:	81000317 	ldw	r4,12(r16)
  8043d8:	81400217 	ldw	r5,8(r16)
  8043dc:	18c00054 	ori	r3,r3,1
  8043e0:	10c00115 	stw	r3,4(r2)
  8043e4:	29000315 	stw	r4,12(r5)
  8043e8:	21400215 	stw	r5,8(r4)
  8043ec:	9009883a 	mov	r4,r18
  8043f0:	08067300 	call	806730 <__malloc_unlock>
  8043f4:	80800204 	addi	r2,r16,8
  8043f8:	003f2506 	br	804090 <__alt_mem_onchip_mem+0xff7fc090>
  8043fc:	12001704 	addi	r8,r2,92
  804400:	11c016c4 	addi	r7,r2,91
  804404:	4209883a 	add	r4,r8,r8
  804408:	003e9606 	br	803e64 <__alt_mem_onchip_mem+0xff7fbe64>
  80440c:	3804d1ba 	srli	r2,r7,6
  804410:	11400e44 	addi	r5,r2,57
  804414:	10c00e04 	addi	r3,r2,56
  804418:	294b883a 	add	r5,r5,r5
  80441c:	003fbc06 	br	804310 <__alt_mem_onchip_mem+0xff7fc310>
  804420:	84ff5926 	beq	r16,r19,804188 <__alt_mem_onchip_mem+0xff7fc188>
  804424:	00802074 	movhi	r2,129
  804428:	10aa1f04 	addi	r2,r2,-22404
  80442c:	14000217 	ldw	r16,8(r2)
  804430:	00bfff04 	movi	r2,-4
  804434:	80c00117 	ldw	r3,4(r16)
  804438:	1886703a 	and	r3,r3,r2
  80443c:	003f9106 	br	804284 <__alt_mem_onchip_mem+0xff7fc284>
  804440:	60800217 	ldw	r2,8(r12)
  804444:	213fffc4 	addi	r4,r4,-1
  804448:	1300651e 	bne	r2,r12,8045e0 <_malloc_r+0x7f4>
  80444c:	208000cc 	andi	r2,r4,3
  804450:	633ffe04 	addi	r12,r12,-8
  804454:	103ffa1e 	bne	r2,zero,804440 <__alt_mem_onchip_mem+0xff7fc440>
  804458:	98800117 	ldw	r2,4(r19)
  80445c:	0146303a 	nor	r3,zero,r5
  804460:	1884703a 	and	r2,r3,r2
  804464:	98800115 	stw	r2,4(r19)
  804468:	294b883a 	add	r5,r5,r5
  80446c:	117f2836 	bltu	r2,r5,804110 <__alt_mem_onchip_mem+0xff7fc110>
  804470:	283f2726 	beq	r5,zero,804110 <__alt_mem_onchip_mem+0xff7fc110>
  804474:	2886703a 	and	r3,r5,r2
  804478:	5809883a 	mov	r4,r11
  80447c:	183ec31e 	bne	r3,zero,803f8c <__alt_mem_onchip_mem+0xff7fbf8c>
  804480:	294b883a 	add	r5,r5,r5
  804484:	2886703a 	and	r3,r5,r2
  804488:	21000104 	addi	r4,r4,4
  80448c:	183ffc26 	beq	r3,zero,804480 <__alt_mem_onchip_mem+0xff7fc480>
  804490:	003ebe06 	br	803f8c <__alt_mem_onchip_mem+0xff7fbf8c>
  804494:	00c05504 	movi	r3,340
  804498:	18801236 	bltu	r3,r2,8044e4 <_malloc_r+0x6f8>
  80449c:	8804d3fa 	srli	r2,r17,15
  8044a0:	12001e04 	addi	r8,r2,120
  8044a4:	11c01dc4 	addi	r7,r2,119
  8044a8:	4209883a 	add	r4,r8,r8
  8044ac:	003e6d06 	br	803e64 <__alt_mem_onchip_mem+0xff7fbe64>
  8044b0:	00c40004 	movi	r3,4096
  8044b4:	003f4606 	br	8041d0 <__alt_mem_onchip_mem+0xff7fc1d0>
  8044b8:	00800044 	movi	r2,1
  8044bc:	a0800115 	stw	r2,4(r20)
  8044c0:	003f7406 	br	804294 <__alt_mem_onchip_mem+0xff7fc294>
  8044c4:	1805d0ba 	srai	r2,r3,2
  8044c8:	01c00044 	movi	r7,1
  8044cc:	30c00117 	ldw	r3,4(r6)
  8044d0:	388e983a 	sll	r7,r7,r2
  8044d4:	2805883a 	mov	r2,r5
  8044d8:	38c6b03a 	or	r3,r7,r3
  8044dc:	30c00115 	stw	r3,4(r6)
  8044e0:	003f9b06 	br	804350 <__alt_mem_onchip_mem+0xff7fc350>
  8044e4:	00c15504 	movi	r3,1364
  8044e8:	18801a36 	bltu	r3,r2,804554 <_malloc_r+0x768>
  8044ec:	8804d4ba 	srli	r2,r17,18
  8044f0:	12001f44 	addi	r8,r2,125
  8044f4:	11c01f04 	addi	r7,r2,124
  8044f8:	4209883a 	add	r4,r8,r8
  8044fc:	003e5906 	br	803e64 <__alt_mem_onchip_mem+0xff7fbe64>
  804500:	ad400404 	addi	r21,r21,16
  804504:	003f1706 	br	804164 <__alt_mem_onchip_mem+0xff7fc164>
  804508:	00c01504 	movi	r3,84
  80450c:	18802336 	bltu	r3,r2,80459c <_malloc_r+0x7b0>
  804510:	3804d33a 	srli	r2,r7,12
  804514:	11401bc4 	addi	r5,r2,111
  804518:	10c01b84 	addi	r3,r2,110
  80451c:	294b883a 	add	r5,r5,r5
  804520:	003f7b06 	br	804310 <__alt_mem_onchip_mem+0xff7fc310>
  804524:	9c000217 	ldw	r16,8(r19)
  804528:	00bfff04 	movi	r2,-4
  80452c:	80c00117 	ldw	r3,4(r16)
  804530:	1886703a 	and	r3,r3,r2
  804534:	003f5306 	br	804284 <__alt_mem_onchip_mem+0xff7fc284>
  804538:	3083ffcc 	andi	r2,r6,4095
  80453c:	103f181e 	bne	r2,zero,8041a0 <__alt_mem_onchip_mem+0xff7fc1a0>
  804540:	99000217 	ldw	r4,8(r19)
  804544:	b545883a 	add	r2,r22,r21
  804548:	10800054 	ori	r2,r2,1
  80454c:	20800115 	stw	r2,4(r4)
  804550:	003f3e06 	br	80424c <__alt_mem_onchip_mem+0xff7fc24c>
  804554:	01003f84 	movi	r4,254
  804558:	02001fc4 	movi	r8,127
  80455c:	01c01f84 	movi	r7,126
  804560:	003e4006 	br	803e64 <__alt_mem_onchip_mem+0xff7fbe64>
  804564:	00802074 	movhi	r2,129
  804568:	10b01e04 	addi	r2,r2,-16264
  80456c:	15000015 	stw	r20,0(r2)
  804570:	003f1106 	br	8041b8 <__alt_mem_onchip_mem+0xff7fc1b8>
  804574:	00800044 	movi	r2,1
  804578:	002b883a 	mov	r21,zero
  80457c:	003f1f06 	br	8041fc <__alt_mem_onchip_mem+0xff7fc1fc>
  804580:	81400204 	addi	r5,r16,8
  804584:	9009883a 	mov	r4,r18
  804588:	08058740 	call	805874 <_free_r>
  80458c:	00802074 	movhi	r2,129
  804590:	10b7b504 	addi	r2,r2,-8492
  804594:	10c00017 	ldw	r3,0(r2)
  804598:	003f2c06 	br	80424c <__alt_mem_onchip_mem+0xff7fc24c>
  80459c:	00c05504 	movi	r3,340
  8045a0:	18800536 	bltu	r3,r2,8045b8 <_malloc_r+0x7cc>
  8045a4:	3804d3fa 	srli	r2,r7,15
  8045a8:	11401e04 	addi	r5,r2,120
  8045ac:	10c01dc4 	addi	r3,r2,119
  8045b0:	294b883a 	add	r5,r5,r5
  8045b4:	003f5606 	br	804310 <__alt_mem_onchip_mem+0xff7fc310>
  8045b8:	00c15504 	movi	r3,1364
  8045bc:	18800536 	bltu	r3,r2,8045d4 <_malloc_r+0x7e8>
  8045c0:	3804d4ba 	srli	r2,r7,18
  8045c4:	11401f44 	addi	r5,r2,125
  8045c8:	10c01f04 	addi	r3,r2,124
  8045cc:	294b883a 	add	r5,r5,r5
  8045d0:	003f4f06 	br	804310 <__alt_mem_onchip_mem+0xff7fc310>
  8045d4:	01403f84 	movi	r5,254
  8045d8:	00c01f84 	movi	r3,126
  8045dc:	003f4c06 	br	804310 <__alt_mem_onchip_mem+0xff7fc310>
  8045e0:	98800117 	ldw	r2,4(r19)
  8045e4:	003fa006 	br	804468 <__alt_mem_onchip_mem+0xff7fc468>
  8045e8:	8808d0fa 	srli	r4,r17,3
  8045ec:	20800044 	addi	r2,r4,1
  8045f0:	1085883a 	add	r2,r2,r2
  8045f4:	003e9006 	br	804038 <__alt_mem_onchip_mem+0xff7fc038>

008045f8 <memchr>:
  8045f8:	208000cc 	andi	r2,r4,3
  8045fc:	280f883a 	mov	r7,r5
  804600:	10003426 	beq	r2,zero,8046d4 <memchr+0xdc>
  804604:	30bfffc4 	addi	r2,r6,-1
  804608:	30001a26 	beq	r6,zero,804674 <memchr+0x7c>
  80460c:	20c00003 	ldbu	r3,0(r4)
  804610:	29803fcc 	andi	r6,r5,255
  804614:	30c0051e 	bne	r6,r3,80462c <memchr+0x34>
  804618:	00001806 	br	80467c <memchr+0x84>
  80461c:	10001526 	beq	r2,zero,804674 <memchr+0x7c>
  804620:	20c00003 	ldbu	r3,0(r4)
  804624:	10bfffc4 	addi	r2,r2,-1
  804628:	30c01426 	beq	r6,r3,80467c <memchr+0x84>
  80462c:	21000044 	addi	r4,r4,1
  804630:	20c000cc 	andi	r3,r4,3
  804634:	183ff91e 	bne	r3,zero,80461c <__alt_mem_onchip_mem+0xff7fc61c>
  804638:	020000c4 	movi	r8,3
  80463c:	40801136 	bltu	r8,r2,804684 <memchr+0x8c>
  804640:	10000c26 	beq	r2,zero,804674 <memchr+0x7c>
  804644:	20c00003 	ldbu	r3,0(r4)
  804648:	29403fcc 	andi	r5,r5,255
  80464c:	28c00b26 	beq	r5,r3,80467c <memchr+0x84>
  804650:	20c00044 	addi	r3,r4,1
  804654:	39803fcc 	andi	r6,r7,255
  804658:	2089883a 	add	r4,r4,r2
  80465c:	00000306 	br	80466c <memchr+0x74>
  804660:	18c00044 	addi	r3,r3,1
  804664:	197fffc3 	ldbu	r5,-1(r3)
  804668:	31400526 	beq	r6,r5,804680 <memchr+0x88>
  80466c:	1805883a 	mov	r2,r3
  804670:	20fffb1e 	bne	r4,r3,804660 <__alt_mem_onchip_mem+0xff7fc660>
  804674:	0005883a 	mov	r2,zero
  804678:	f800283a 	ret
  80467c:	2005883a 	mov	r2,r4
  804680:	f800283a 	ret
  804684:	28c03fcc 	andi	r3,r5,255
  804688:	1812923a 	slli	r9,r3,8
  80468c:	02ffbff4 	movhi	r11,65279
  804690:	02a02074 	movhi	r10,32897
  804694:	48d2b03a 	or	r9,r9,r3
  804698:	4806943a 	slli	r3,r9,16
  80469c:	5affbfc4 	addi	r11,r11,-257
  8046a0:	52a02004 	addi	r10,r10,-32640
  8046a4:	48d2b03a 	or	r9,r9,r3
  8046a8:	20c00017 	ldw	r3,0(r4)
  8046ac:	48c6f03a 	xor	r3,r9,r3
  8046b0:	1acd883a 	add	r6,r3,r11
  8046b4:	00c6303a 	nor	r3,zero,r3
  8046b8:	30c6703a 	and	r3,r6,r3
  8046bc:	1a86703a 	and	r3,r3,r10
  8046c0:	183fe01e 	bne	r3,zero,804644 <__alt_mem_onchip_mem+0xff7fc644>
  8046c4:	10bfff04 	addi	r2,r2,-4
  8046c8:	21000104 	addi	r4,r4,4
  8046cc:	40bff636 	bltu	r8,r2,8046a8 <__alt_mem_onchip_mem+0xff7fc6a8>
  8046d0:	003fdb06 	br	804640 <__alt_mem_onchip_mem+0xff7fc640>
  8046d4:	3005883a 	mov	r2,r6
  8046d8:	003fd706 	br	804638 <__alt_mem_onchip_mem+0xff7fc638>

008046dc <memcpy>:
  8046dc:	defffd04 	addi	sp,sp,-12
  8046e0:	dfc00215 	stw	ra,8(sp)
  8046e4:	dc400115 	stw	r17,4(sp)
  8046e8:	dc000015 	stw	r16,0(sp)
  8046ec:	00c003c4 	movi	r3,15
  8046f0:	2005883a 	mov	r2,r4
  8046f4:	1980452e 	bgeu	r3,r6,80480c <memcpy+0x130>
  8046f8:	2906b03a 	or	r3,r5,r4
  8046fc:	18c000cc 	andi	r3,r3,3
  804700:	1800441e 	bne	r3,zero,804814 <memcpy+0x138>
  804704:	347ffc04 	addi	r17,r6,-16
  804708:	8822d13a 	srli	r17,r17,4
  80470c:	28c00104 	addi	r3,r5,4
  804710:	23400104 	addi	r13,r4,4
  804714:	8820913a 	slli	r16,r17,4
  804718:	2b000204 	addi	r12,r5,8
  80471c:	22c00204 	addi	r11,r4,8
  804720:	84000504 	addi	r16,r16,20
  804724:	2a800304 	addi	r10,r5,12
  804728:	22400304 	addi	r9,r4,12
  80472c:	2c21883a 	add	r16,r5,r16
  804730:	2811883a 	mov	r8,r5
  804734:	200f883a 	mov	r7,r4
  804738:	41000017 	ldw	r4,0(r8)
  80473c:	1fc00017 	ldw	ra,0(r3)
  804740:	63c00017 	ldw	r15,0(r12)
  804744:	39000015 	stw	r4,0(r7)
  804748:	53800017 	ldw	r14,0(r10)
  80474c:	6fc00015 	stw	ra,0(r13)
  804750:	5bc00015 	stw	r15,0(r11)
  804754:	4b800015 	stw	r14,0(r9)
  804758:	18c00404 	addi	r3,r3,16
  80475c:	39c00404 	addi	r7,r7,16
  804760:	42000404 	addi	r8,r8,16
  804764:	6b400404 	addi	r13,r13,16
  804768:	63000404 	addi	r12,r12,16
  80476c:	5ac00404 	addi	r11,r11,16
  804770:	52800404 	addi	r10,r10,16
  804774:	4a400404 	addi	r9,r9,16
  804778:	1c3fef1e 	bne	r3,r16,804738 <__alt_mem_onchip_mem+0xff7fc738>
  80477c:	89c00044 	addi	r7,r17,1
  804780:	380e913a 	slli	r7,r7,4
  804784:	310003cc 	andi	r4,r6,15
  804788:	02c000c4 	movi	r11,3
  80478c:	11c7883a 	add	r3,r2,r7
  804790:	29cb883a 	add	r5,r5,r7
  804794:	5900212e 	bgeu	r11,r4,80481c <memcpy+0x140>
  804798:	1813883a 	mov	r9,r3
  80479c:	2811883a 	mov	r8,r5
  8047a0:	200f883a 	mov	r7,r4
  8047a4:	42800017 	ldw	r10,0(r8)
  8047a8:	4a400104 	addi	r9,r9,4
  8047ac:	39ffff04 	addi	r7,r7,-4
  8047b0:	4abfff15 	stw	r10,-4(r9)
  8047b4:	42000104 	addi	r8,r8,4
  8047b8:	59fffa36 	bltu	r11,r7,8047a4 <__alt_mem_onchip_mem+0xff7fc7a4>
  8047bc:	213fff04 	addi	r4,r4,-4
  8047c0:	2008d0ba 	srli	r4,r4,2
  8047c4:	318000cc 	andi	r6,r6,3
  8047c8:	21000044 	addi	r4,r4,1
  8047cc:	2109883a 	add	r4,r4,r4
  8047d0:	2109883a 	add	r4,r4,r4
  8047d4:	1907883a 	add	r3,r3,r4
  8047d8:	290b883a 	add	r5,r5,r4
  8047dc:	30000626 	beq	r6,zero,8047f8 <memcpy+0x11c>
  8047e0:	198d883a 	add	r6,r3,r6
  8047e4:	29c00003 	ldbu	r7,0(r5)
  8047e8:	18c00044 	addi	r3,r3,1
  8047ec:	29400044 	addi	r5,r5,1
  8047f0:	19ffffc5 	stb	r7,-1(r3)
  8047f4:	19bffb1e 	bne	r3,r6,8047e4 <__alt_mem_onchip_mem+0xff7fc7e4>
  8047f8:	dfc00217 	ldw	ra,8(sp)
  8047fc:	dc400117 	ldw	r17,4(sp)
  804800:	dc000017 	ldw	r16,0(sp)
  804804:	dec00304 	addi	sp,sp,12
  804808:	f800283a 	ret
  80480c:	2007883a 	mov	r3,r4
  804810:	003ff206 	br	8047dc <__alt_mem_onchip_mem+0xff7fc7dc>
  804814:	2007883a 	mov	r3,r4
  804818:	003ff106 	br	8047e0 <__alt_mem_onchip_mem+0xff7fc7e0>
  80481c:	200d883a 	mov	r6,r4
  804820:	003fee06 	br	8047dc <__alt_mem_onchip_mem+0xff7fc7dc>

00804824 <memmove>:
  804824:	2005883a 	mov	r2,r4
  804828:	29000b2e 	bgeu	r5,r4,804858 <memmove+0x34>
  80482c:	298f883a 	add	r7,r5,r6
  804830:	21c0092e 	bgeu	r4,r7,804858 <memmove+0x34>
  804834:	2187883a 	add	r3,r4,r6
  804838:	198bc83a 	sub	r5,r3,r6
  80483c:	30004826 	beq	r6,zero,804960 <memmove+0x13c>
  804840:	39ffffc4 	addi	r7,r7,-1
  804844:	39000003 	ldbu	r4,0(r7)
  804848:	18ffffc4 	addi	r3,r3,-1
  80484c:	19000005 	stb	r4,0(r3)
  804850:	28fffb1e 	bne	r5,r3,804840 <__alt_mem_onchip_mem+0xff7fc840>
  804854:	f800283a 	ret
  804858:	00c003c4 	movi	r3,15
  80485c:	1980412e 	bgeu	r3,r6,804964 <memmove+0x140>
  804860:	2886b03a 	or	r3,r5,r2
  804864:	18c000cc 	andi	r3,r3,3
  804868:	1800401e 	bne	r3,zero,80496c <memmove+0x148>
  80486c:	33fffc04 	addi	r15,r6,-16
  804870:	781ed13a 	srli	r15,r15,4
  804874:	28c00104 	addi	r3,r5,4
  804878:	13400104 	addi	r13,r2,4
  80487c:	781c913a 	slli	r14,r15,4
  804880:	2b000204 	addi	r12,r5,8
  804884:	12c00204 	addi	r11,r2,8
  804888:	73800504 	addi	r14,r14,20
  80488c:	2a800304 	addi	r10,r5,12
  804890:	12400304 	addi	r9,r2,12
  804894:	2b9d883a 	add	r14,r5,r14
  804898:	2811883a 	mov	r8,r5
  80489c:	100f883a 	mov	r7,r2
  8048a0:	41000017 	ldw	r4,0(r8)
  8048a4:	39c00404 	addi	r7,r7,16
  8048a8:	18c00404 	addi	r3,r3,16
  8048ac:	393ffc15 	stw	r4,-16(r7)
  8048b0:	193ffc17 	ldw	r4,-16(r3)
  8048b4:	6b400404 	addi	r13,r13,16
  8048b8:	5ac00404 	addi	r11,r11,16
  8048bc:	693ffc15 	stw	r4,-16(r13)
  8048c0:	61000017 	ldw	r4,0(r12)
  8048c4:	4a400404 	addi	r9,r9,16
  8048c8:	42000404 	addi	r8,r8,16
  8048cc:	593ffc15 	stw	r4,-16(r11)
  8048d0:	51000017 	ldw	r4,0(r10)
  8048d4:	63000404 	addi	r12,r12,16
  8048d8:	52800404 	addi	r10,r10,16
  8048dc:	493ffc15 	stw	r4,-16(r9)
  8048e0:	1bbfef1e 	bne	r3,r14,8048a0 <__alt_mem_onchip_mem+0xff7fc8a0>
  8048e4:	79000044 	addi	r4,r15,1
  8048e8:	2008913a 	slli	r4,r4,4
  8048ec:	328003cc 	andi	r10,r6,15
  8048f0:	02c000c4 	movi	r11,3
  8048f4:	1107883a 	add	r3,r2,r4
  8048f8:	290b883a 	add	r5,r5,r4
  8048fc:	5a801e2e 	bgeu	r11,r10,804978 <memmove+0x154>
  804900:	1813883a 	mov	r9,r3
  804904:	2811883a 	mov	r8,r5
  804908:	500f883a 	mov	r7,r10
  80490c:	41000017 	ldw	r4,0(r8)
  804910:	4a400104 	addi	r9,r9,4
  804914:	39ffff04 	addi	r7,r7,-4
  804918:	493fff15 	stw	r4,-4(r9)
  80491c:	42000104 	addi	r8,r8,4
  804920:	59fffa36 	bltu	r11,r7,80490c <__alt_mem_onchip_mem+0xff7fc90c>
  804924:	513fff04 	addi	r4,r10,-4
  804928:	2008d0ba 	srli	r4,r4,2
  80492c:	318000cc 	andi	r6,r6,3
  804930:	21000044 	addi	r4,r4,1
  804934:	2109883a 	add	r4,r4,r4
  804938:	2109883a 	add	r4,r4,r4
  80493c:	1907883a 	add	r3,r3,r4
  804940:	290b883a 	add	r5,r5,r4
  804944:	30000b26 	beq	r6,zero,804974 <memmove+0x150>
  804948:	198d883a 	add	r6,r3,r6
  80494c:	29c00003 	ldbu	r7,0(r5)
  804950:	18c00044 	addi	r3,r3,1
  804954:	29400044 	addi	r5,r5,1
  804958:	19ffffc5 	stb	r7,-1(r3)
  80495c:	19bffb1e 	bne	r3,r6,80494c <__alt_mem_onchip_mem+0xff7fc94c>
  804960:	f800283a 	ret
  804964:	1007883a 	mov	r3,r2
  804968:	003ff606 	br	804944 <__alt_mem_onchip_mem+0xff7fc944>
  80496c:	1007883a 	mov	r3,r2
  804970:	003ff506 	br	804948 <__alt_mem_onchip_mem+0xff7fc948>
  804974:	f800283a 	ret
  804978:	500d883a 	mov	r6,r10
  80497c:	003ff106 	br	804944 <__alt_mem_onchip_mem+0xff7fc944>

00804980 <memset>:
  804980:	20c000cc 	andi	r3,r4,3
  804984:	2005883a 	mov	r2,r4
  804988:	18004426 	beq	r3,zero,804a9c <memset+0x11c>
  80498c:	31ffffc4 	addi	r7,r6,-1
  804990:	30004026 	beq	r6,zero,804a94 <memset+0x114>
  804994:	2813883a 	mov	r9,r5
  804998:	200d883a 	mov	r6,r4
  80499c:	2007883a 	mov	r3,r4
  8049a0:	00000406 	br	8049b4 <memset+0x34>
  8049a4:	3a3fffc4 	addi	r8,r7,-1
  8049a8:	31800044 	addi	r6,r6,1
  8049ac:	38003926 	beq	r7,zero,804a94 <memset+0x114>
  8049b0:	400f883a 	mov	r7,r8
  8049b4:	18c00044 	addi	r3,r3,1
  8049b8:	32400005 	stb	r9,0(r6)
  8049bc:	1a0000cc 	andi	r8,r3,3
  8049c0:	403ff81e 	bne	r8,zero,8049a4 <__alt_mem_onchip_mem+0xff7fc9a4>
  8049c4:	010000c4 	movi	r4,3
  8049c8:	21c02d2e 	bgeu	r4,r7,804a80 <memset+0x100>
  8049cc:	29003fcc 	andi	r4,r5,255
  8049d0:	200c923a 	slli	r6,r4,8
  8049d4:	3108b03a 	or	r4,r6,r4
  8049d8:	200c943a 	slli	r6,r4,16
  8049dc:	218cb03a 	or	r6,r4,r6
  8049e0:	010003c4 	movi	r4,15
  8049e4:	21c0182e 	bgeu	r4,r7,804a48 <memset+0xc8>
  8049e8:	3b3ffc04 	addi	r12,r7,-16
  8049ec:	6018d13a 	srli	r12,r12,4
  8049f0:	1a000104 	addi	r8,r3,4
  8049f4:	1ac00204 	addi	r11,r3,8
  8049f8:	6008913a 	slli	r4,r12,4
  8049fc:	1a800304 	addi	r10,r3,12
  804a00:	1813883a 	mov	r9,r3
  804a04:	21000504 	addi	r4,r4,20
  804a08:	1909883a 	add	r4,r3,r4
  804a0c:	49800015 	stw	r6,0(r9)
  804a10:	41800015 	stw	r6,0(r8)
  804a14:	59800015 	stw	r6,0(r11)
  804a18:	51800015 	stw	r6,0(r10)
  804a1c:	42000404 	addi	r8,r8,16
  804a20:	4a400404 	addi	r9,r9,16
  804a24:	5ac00404 	addi	r11,r11,16
  804a28:	52800404 	addi	r10,r10,16
  804a2c:	413ff71e 	bne	r8,r4,804a0c <__alt_mem_onchip_mem+0xff7fca0c>
  804a30:	63000044 	addi	r12,r12,1
  804a34:	6018913a 	slli	r12,r12,4
  804a38:	39c003cc 	andi	r7,r7,15
  804a3c:	010000c4 	movi	r4,3
  804a40:	1b07883a 	add	r3,r3,r12
  804a44:	21c00e2e 	bgeu	r4,r7,804a80 <memset+0x100>
  804a48:	1813883a 	mov	r9,r3
  804a4c:	3811883a 	mov	r8,r7
  804a50:	010000c4 	movi	r4,3
  804a54:	49800015 	stw	r6,0(r9)
  804a58:	423fff04 	addi	r8,r8,-4
  804a5c:	4a400104 	addi	r9,r9,4
  804a60:	223ffc36 	bltu	r4,r8,804a54 <__alt_mem_onchip_mem+0xff7fca54>
  804a64:	393fff04 	addi	r4,r7,-4
  804a68:	2008d0ba 	srli	r4,r4,2
  804a6c:	39c000cc 	andi	r7,r7,3
  804a70:	21000044 	addi	r4,r4,1
  804a74:	2109883a 	add	r4,r4,r4
  804a78:	2109883a 	add	r4,r4,r4
  804a7c:	1907883a 	add	r3,r3,r4
  804a80:	38000526 	beq	r7,zero,804a98 <memset+0x118>
  804a84:	19cf883a 	add	r7,r3,r7
  804a88:	19400005 	stb	r5,0(r3)
  804a8c:	18c00044 	addi	r3,r3,1
  804a90:	38fffd1e 	bne	r7,r3,804a88 <__alt_mem_onchip_mem+0xff7fca88>
  804a94:	f800283a 	ret
  804a98:	f800283a 	ret
  804a9c:	2007883a 	mov	r3,r4
  804aa0:	300f883a 	mov	r7,r6
  804aa4:	003fc706 	br	8049c4 <__alt_mem_onchip_mem+0xff7fc9c4>

00804aa8 <_realloc_r>:
  804aa8:	defff604 	addi	sp,sp,-40
  804aac:	dc800215 	stw	r18,8(sp)
  804ab0:	dfc00915 	stw	ra,36(sp)
  804ab4:	df000815 	stw	fp,32(sp)
  804ab8:	ddc00715 	stw	r23,28(sp)
  804abc:	dd800615 	stw	r22,24(sp)
  804ac0:	dd400515 	stw	r21,20(sp)
  804ac4:	dd000415 	stw	r20,16(sp)
  804ac8:	dcc00315 	stw	r19,12(sp)
  804acc:	dc400115 	stw	r17,4(sp)
  804ad0:	dc000015 	stw	r16,0(sp)
  804ad4:	3025883a 	mov	r18,r6
  804ad8:	2800b726 	beq	r5,zero,804db8 <_realloc_r+0x310>
  804adc:	282b883a 	mov	r21,r5
  804ae0:	2029883a 	mov	r20,r4
  804ae4:	080670c0 	call	80670c <__malloc_lock>
  804ae8:	a8bfff17 	ldw	r2,-4(r21)
  804aec:	043fff04 	movi	r16,-4
  804af0:	90c002c4 	addi	r3,r18,11
  804af4:	01000584 	movi	r4,22
  804af8:	acfffe04 	addi	r19,r21,-8
  804afc:	1420703a 	and	r16,r2,r16
  804b00:	20c0332e 	bgeu	r4,r3,804bd0 <_realloc_r+0x128>
  804b04:	047ffe04 	movi	r17,-8
  804b08:	1c62703a 	and	r17,r3,r17
  804b0c:	8807883a 	mov	r3,r17
  804b10:	88005816 	blt	r17,zero,804c74 <_realloc_r+0x1cc>
  804b14:	8c805736 	bltu	r17,r18,804c74 <_realloc_r+0x1cc>
  804b18:	80c0300e 	bge	r16,r3,804bdc <_realloc_r+0x134>
  804b1c:	07002074 	movhi	fp,129
  804b20:	e72a1f04 	addi	fp,fp,-22404
  804b24:	e1c00217 	ldw	r7,8(fp)
  804b28:	9c09883a 	add	r4,r19,r16
  804b2c:	22000117 	ldw	r8,4(r4)
  804b30:	21c06326 	beq	r4,r7,804cc0 <_realloc_r+0x218>
  804b34:	017fff84 	movi	r5,-2
  804b38:	414a703a 	and	r5,r8,r5
  804b3c:	214b883a 	add	r5,r4,r5
  804b40:	29800117 	ldw	r6,4(r5)
  804b44:	3180004c 	andi	r6,r6,1
  804b48:	30003f26 	beq	r6,zero,804c48 <_realloc_r+0x1a0>
  804b4c:	1080004c 	andi	r2,r2,1
  804b50:	10008326 	beq	r2,zero,804d60 <_realloc_r+0x2b8>
  804b54:	900b883a 	mov	r5,r18
  804b58:	a009883a 	mov	r4,r20
  804b5c:	0803dec0 	call	803dec <_malloc_r>
  804b60:	1025883a 	mov	r18,r2
  804b64:	10011e26 	beq	r2,zero,804fe0 <_realloc_r+0x538>
  804b68:	a93fff17 	ldw	r4,-4(r21)
  804b6c:	10fffe04 	addi	r3,r2,-8
  804b70:	00bfff84 	movi	r2,-2
  804b74:	2084703a 	and	r2,r4,r2
  804b78:	9885883a 	add	r2,r19,r2
  804b7c:	1880ee26 	beq	r3,r2,804f38 <_realloc_r+0x490>
  804b80:	81bfff04 	addi	r6,r16,-4
  804b84:	00800904 	movi	r2,36
  804b88:	1180b836 	bltu	r2,r6,804e6c <_realloc_r+0x3c4>
  804b8c:	00c004c4 	movi	r3,19
  804b90:	19809636 	bltu	r3,r6,804dec <_realloc_r+0x344>
  804b94:	9005883a 	mov	r2,r18
  804b98:	a807883a 	mov	r3,r21
  804b9c:	19000017 	ldw	r4,0(r3)
  804ba0:	11000015 	stw	r4,0(r2)
  804ba4:	19000117 	ldw	r4,4(r3)
  804ba8:	11000115 	stw	r4,4(r2)
  804bac:	18c00217 	ldw	r3,8(r3)
  804bb0:	10c00215 	stw	r3,8(r2)
  804bb4:	a80b883a 	mov	r5,r21
  804bb8:	a009883a 	mov	r4,r20
  804bbc:	08058740 	call	805874 <_free_r>
  804bc0:	a009883a 	mov	r4,r20
  804bc4:	08067300 	call	806730 <__malloc_unlock>
  804bc8:	9005883a 	mov	r2,r18
  804bcc:	00001206 	br	804c18 <_realloc_r+0x170>
  804bd0:	00c00404 	movi	r3,16
  804bd4:	1823883a 	mov	r17,r3
  804bd8:	003fce06 	br	804b14 <__alt_mem_onchip_mem+0xff7fcb14>
  804bdc:	a825883a 	mov	r18,r21
  804be0:	8445c83a 	sub	r2,r16,r17
  804be4:	00c003c4 	movi	r3,15
  804be8:	18802636 	bltu	r3,r2,804c84 <_realloc_r+0x1dc>
  804bec:	99800117 	ldw	r6,4(r19)
  804bf0:	9c07883a 	add	r3,r19,r16
  804bf4:	3180004c 	andi	r6,r6,1
  804bf8:	3420b03a 	or	r16,r6,r16
  804bfc:	9c000115 	stw	r16,4(r19)
  804c00:	18800117 	ldw	r2,4(r3)
  804c04:	10800054 	ori	r2,r2,1
  804c08:	18800115 	stw	r2,4(r3)
  804c0c:	a009883a 	mov	r4,r20
  804c10:	08067300 	call	806730 <__malloc_unlock>
  804c14:	9005883a 	mov	r2,r18
  804c18:	dfc00917 	ldw	ra,36(sp)
  804c1c:	df000817 	ldw	fp,32(sp)
  804c20:	ddc00717 	ldw	r23,28(sp)
  804c24:	dd800617 	ldw	r22,24(sp)
  804c28:	dd400517 	ldw	r21,20(sp)
  804c2c:	dd000417 	ldw	r20,16(sp)
  804c30:	dcc00317 	ldw	r19,12(sp)
  804c34:	dc800217 	ldw	r18,8(sp)
  804c38:	dc400117 	ldw	r17,4(sp)
  804c3c:	dc000017 	ldw	r16,0(sp)
  804c40:	dec00a04 	addi	sp,sp,40
  804c44:	f800283a 	ret
  804c48:	017fff04 	movi	r5,-4
  804c4c:	414a703a 	and	r5,r8,r5
  804c50:	814d883a 	add	r6,r16,r5
  804c54:	30c01f16 	blt	r6,r3,804cd4 <_realloc_r+0x22c>
  804c58:	20800317 	ldw	r2,12(r4)
  804c5c:	20c00217 	ldw	r3,8(r4)
  804c60:	a825883a 	mov	r18,r21
  804c64:	3021883a 	mov	r16,r6
  804c68:	18800315 	stw	r2,12(r3)
  804c6c:	10c00215 	stw	r3,8(r2)
  804c70:	003fdb06 	br	804be0 <__alt_mem_onchip_mem+0xff7fcbe0>
  804c74:	00800304 	movi	r2,12
  804c78:	a0800015 	stw	r2,0(r20)
  804c7c:	0005883a 	mov	r2,zero
  804c80:	003fe506 	br	804c18 <__alt_mem_onchip_mem+0xff7fcc18>
  804c84:	98c00117 	ldw	r3,4(r19)
  804c88:	9c4b883a 	add	r5,r19,r17
  804c8c:	11000054 	ori	r4,r2,1
  804c90:	18c0004c 	andi	r3,r3,1
  804c94:	1c62b03a 	or	r17,r3,r17
  804c98:	9c400115 	stw	r17,4(r19)
  804c9c:	29000115 	stw	r4,4(r5)
  804ca0:	2885883a 	add	r2,r5,r2
  804ca4:	10c00117 	ldw	r3,4(r2)
  804ca8:	29400204 	addi	r5,r5,8
  804cac:	a009883a 	mov	r4,r20
  804cb0:	18c00054 	ori	r3,r3,1
  804cb4:	10c00115 	stw	r3,4(r2)
  804cb8:	08058740 	call	805874 <_free_r>
  804cbc:	003fd306 	br	804c0c <__alt_mem_onchip_mem+0xff7fcc0c>
  804cc0:	017fff04 	movi	r5,-4
  804cc4:	414a703a 	and	r5,r8,r5
  804cc8:	89800404 	addi	r6,r17,16
  804ccc:	8151883a 	add	r8,r16,r5
  804cd0:	4180590e 	bge	r8,r6,804e38 <_realloc_r+0x390>
  804cd4:	1080004c 	andi	r2,r2,1
  804cd8:	103f9e1e 	bne	r2,zero,804b54 <__alt_mem_onchip_mem+0xff7fcb54>
  804cdc:	adbffe17 	ldw	r22,-8(r21)
  804ce0:	00bfff04 	movi	r2,-4
  804ce4:	9dadc83a 	sub	r22,r19,r22
  804ce8:	b1800117 	ldw	r6,4(r22)
  804cec:	3084703a 	and	r2,r6,r2
  804cf0:	20002026 	beq	r4,zero,804d74 <_realloc_r+0x2cc>
  804cf4:	80af883a 	add	r23,r16,r2
  804cf8:	b96f883a 	add	r23,r23,r5
  804cfc:	21c05f26 	beq	r4,r7,804e7c <_realloc_r+0x3d4>
  804d00:	b8c01c16 	blt	r23,r3,804d74 <_realloc_r+0x2cc>
  804d04:	20800317 	ldw	r2,12(r4)
  804d08:	20c00217 	ldw	r3,8(r4)
  804d0c:	81bfff04 	addi	r6,r16,-4
  804d10:	01000904 	movi	r4,36
  804d14:	18800315 	stw	r2,12(r3)
  804d18:	10c00215 	stw	r3,8(r2)
  804d1c:	b0c00217 	ldw	r3,8(r22)
  804d20:	b0800317 	ldw	r2,12(r22)
  804d24:	b4800204 	addi	r18,r22,8
  804d28:	18800315 	stw	r2,12(r3)
  804d2c:	10c00215 	stw	r3,8(r2)
  804d30:	21801b36 	bltu	r4,r6,804da0 <_realloc_r+0x2f8>
  804d34:	008004c4 	movi	r2,19
  804d38:	1180352e 	bgeu	r2,r6,804e10 <_realloc_r+0x368>
  804d3c:	a8800017 	ldw	r2,0(r21)
  804d40:	b0800215 	stw	r2,8(r22)
  804d44:	a8800117 	ldw	r2,4(r21)
  804d48:	b0800315 	stw	r2,12(r22)
  804d4c:	008006c4 	movi	r2,27
  804d50:	11807f36 	bltu	r2,r6,804f50 <_realloc_r+0x4a8>
  804d54:	b0800404 	addi	r2,r22,16
  804d58:	ad400204 	addi	r21,r21,8
  804d5c:	00002d06 	br	804e14 <_realloc_r+0x36c>
  804d60:	adbffe17 	ldw	r22,-8(r21)
  804d64:	00bfff04 	movi	r2,-4
  804d68:	9dadc83a 	sub	r22,r19,r22
  804d6c:	b1000117 	ldw	r4,4(r22)
  804d70:	2084703a 	and	r2,r4,r2
  804d74:	b03f7726 	beq	r22,zero,804b54 <__alt_mem_onchip_mem+0xff7fcb54>
  804d78:	80af883a 	add	r23,r16,r2
  804d7c:	b8ff7516 	blt	r23,r3,804b54 <__alt_mem_onchip_mem+0xff7fcb54>
  804d80:	b0800317 	ldw	r2,12(r22)
  804d84:	b0c00217 	ldw	r3,8(r22)
  804d88:	81bfff04 	addi	r6,r16,-4
  804d8c:	01000904 	movi	r4,36
  804d90:	18800315 	stw	r2,12(r3)
  804d94:	10c00215 	stw	r3,8(r2)
  804d98:	b4800204 	addi	r18,r22,8
  804d9c:	21bfe52e 	bgeu	r4,r6,804d34 <__alt_mem_onchip_mem+0xff7fcd34>
  804da0:	a80b883a 	mov	r5,r21
  804da4:	9009883a 	mov	r4,r18
  804da8:	08048240 	call	804824 <memmove>
  804dac:	b821883a 	mov	r16,r23
  804db0:	b027883a 	mov	r19,r22
  804db4:	003f8a06 	br	804be0 <__alt_mem_onchip_mem+0xff7fcbe0>
  804db8:	300b883a 	mov	r5,r6
  804dbc:	dfc00917 	ldw	ra,36(sp)
  804dc0:	df000817 	ldw	fp,32(sp)
  804dc4:	ddc00717 	ldw	r23,28(sp)
  804dc8:	dd800617 	ldw	r22,24(sp)
  804dcc:	dd400517 	ldw	r21,20(sp)
  804dd0:	dd000417 	ldw	r20,16(sp)
  804dd4:	dcc00317 	ldw	r19,12(sp)
  804dd8:	dc800217 	ldw	r18,8(sp)
  804ddc:	dc400117 	ldw	r17,4(sp)
  804de0:	dc000017 	ldw	r16,0(sp)
  804de4:	dec00a04 	addi	sp,sp,40
  804de8:	0803dec1 	jmpi	803dec <_malloc_r>
  804dec:	a8c00017 	ldw	r3,0(r21)
  804df0:	90c00015 	stw	r3,0(r18)
  804df4:	a8c00117 	ldw	r3,4(r21)
  804df8:	90c00115 	stw	r3,4(r18)
  804dfc:	00c006c4 	movi	r3,27
  804e00:	19804536 	bltu	r3,r6,804f18 <_realloc_r+0x470>
  804e04:	90800204 	addi	r2,r18,8
  804e08:	a8c00204 	addi	r3,r21,8
  804e0c:	003f6306 	br	804b9c <__alt_mem_onchip_mem+0xff7fcb9c>
  804e10:	9005883a 	mov	r2,r18
  804e14:	a8c00017 	ldw	r3,0(r21)
  804e18:	b821883a 	mov	r16,r23
  804e1c:	b027883a 	mov	r19,r22
  804e20:	10c00015 	stw	r3,0(r2)
  804e24:	a8c00117 	ldw	r3,4(r21)
  804e28:	10c00115 	stw	r3,4(r2)
  804e2c:	a8c00217 	ldw	r3,8(r21)
  804e30:	10c00215 	stw	r3,8(r2)
  804e34:	003f6a06 	br	804be0 <__alt_mem_onchip_mem+0xff7fcbe0>
  804e38:	9c67883a 	add	r19,r19,r17
  804e3c:	4445c83a 	sub	r2,r8,r17
  804e40:	e4c00215 	stw	r19,8(fp)
  804e44:	10800054 	ori	r2,r2,1
  804e48:	98800115 	stw	r2,4(r19)
  804e4c:	a8bfff17 	ldw	r2,-4(r21)
  804e50:	a009883a 	mov	r4,r20
  804e54:	1080004c 	andi	r2,r2,1
  804e58:	1462b03a 	or	r17,r2,r17
  804e5c:	ac7fff15 	stw	r17,-4(r21)
  804e60:	08067300 	call	806730 <__malloc_unlock>
  804e64:	a805883a 	mov	r2,r21
  804e68:	003f6b06 	br	804c18 <__alt_mem_onchip_mem+0xff7fcc18>
  804e6c:	a80b883a 	mov	r5,r21
  804e70:	9009883a 	mov	r4,r18
  804e74:	08048240 	call	804824 <memmove>
  804e78:	003f4e06 	br	804bb4 <__alt_mem_onchip_mem+0xff7fcbb4>
  804e7c:	89000404 	addi	r4,r17,16
  804e80:	b93fbc16 	blt	r23,r4,804d74 <__alt_mem_onchip_mem+0xff7fcd74>
  804e84:	b0800317 	ldw	r2,12(r22)
  804e88:	b0c00217 	ldw	r3,8(r22)
  804e8c:	81bfff04 	addi	r6,r16,-4
  804e90:	01000904 	movi	r4,36
  804e94:	18800315 	stw	r2,12(r3)
  804e98:	10c00215 	stw	r3,8(r2)
  804e9c:	b4800204 	addi	r18,r22,8
  804ea0:	21804336 	bltu	r4,r6,804fb0 <_realloc_r+0x508>
  804ea4:	008004c4 	movi	r2,19
  804ea8:	11803f2e 	bgeu	r2,r6,804fa8 <_realloc_r+0x500>
  804eac:	a8800017 	ldw	r2,0(r21)
  804eb0:	b0800215 	stw	r2,8(r22)
  804eb4:	a8800117 	ldw	r2,4(r21)
  804eb8:	b0800315 	stw	r2,12(r22)
  804ebc:	008006c4 	movi	r2,27
  804ec0:	11803f36 	bltu	r2,r6,804fc0 <_realloc_r+0x518>
  804ec4:	b0800404 	addi	r2,r22,16
  804ec8:	ad400204 	addi	r21,r21,8
  804ecc:	a8c00017 	ldw	r3,0(r21)
  804ed0:	10c00015 	stw	r3,0(r2)
  804ed4:	a8c00117 	ldw	r3,4(r21)
  804ed8:	10c00115 	stw	r3,4(r2)
  804edc:	a8c00217 	ldw	r3,8(r21)
  804ee0:	10c00215 	stw	r3,8(r2)
  804ee4:	b447883a 	add	r3,r22,r17
  804ee8:	bc45c83a 	sub	r2,r23,r17
  804eec:	e0c00215 	stw	r3,8(fp)
  804ef0:	10800054 	ori	r2,r2,1
  804ef4:	18800115 	stw	r2,4(r3)
  804ef8:	b0800117 	ldw	r2,4(r22)
  804efc:	a009883a 	mov	r4,r20
  804f00:	1080004c 	andi	r2,r2,1
  804f04:	1462b03a 	or	r17,r2,r17
  804f08:	b4400115 	stw	r17,4(r22)
  804f0c:	08067300 	call	806730 <__malloc_unlock>
  804f10:	9005883a 	mov	r2,r18
  804f14:	003f4006 	br	804c18 <__alt_mem_onchip_mem+0xff7fcc18>
  804f18:	a8c00217 	ldw	r3,8(r21)
  804f1c:	90c00215 	stw	r3,8(r18)
  804f20:	a8c00317 	ldw	r3,12(r21)
  804f24:	90c00315 	stw	r3,12(r18)
  804f28:	30801126 	beq	r6,r2,804f70 <_realloc_r+0x4c8>
  804f2c:	90800404 	addi	r2,r18,16
  804f30:	a8c00404 	addi	r3,r21,16
  804f34:	003f1906 	br	804b9c <__alt_mem_onchip_mem+0xff7fcb9c>
  804f38:	90ffff17 	ldw	r3,-4(r18)
  804f3c:	00bfff04 	movi	r2,-4
  804f40:	a825883a 	mov	r18,r21
  804f44:	1884703a 	and	r2,r3,r2
  804f48:	80a1883a 	add	r16,r16,r2
  804f4c:	003f2406 	br	804be0 <__alt_mem_onchip_mem+0xff7fcbe0>
  804f50:	a8800217 	ldw	r2,8(r21)
  804f54:	b0800415 	stw	r2,16(r22)
  804f58:	a8800317 	ldw	r2,12(r21)
  804f5c:	b0800515 	stw	r2,20(r22)
  804f60:	31000a26 	beq	r6,r4,804f8c <_realloc_r+0x4e4>
  804f64:	b0800604 	addi	r2,r22,24
  804f68:	ad400404 	addi	r21,r21,16
  804f6c:	003fa906 	br	804e14 <__alt_mem_onchip_mem+0xff7fce14>
  804f70:	a9000417 	ldw	r4,16(r21)
  804f74:	90800604 	addi	r2,r18,24
  804f78:	a8c00604 	addi	r3,r21,24
  804f7c:	91000415 	stw	r4,16(r18)
  804f80:	a9000517 	ldw	r4,20(r21)
  804f84:	91000515 	stw	r4,20(r18)
  804f88:	003f0406 	br	804b9c <__alt_mem_onchip_mem+0xff7fcb9c>
  804f8c:	a8c00417 	ldw	r3,16(r21)
  804f90:	ad400604 	addi	r21,r21,24
  804f94:	b0800804 	addi	r2,r22,32
  804f98:	b0c00615 	stw	r3,24(r22)
  804f9c:	a8ffff17 	ldw	r3,-4(r21)
  804fa0:	b0c00715 	stw	r3,28(r22)
  804fa4:	003f9b06 	br	804e14 <__alt_mem_onchip_mem+0xff7fce14>
  804fa8:	9005883a 	mov	r2,r18
  804fac:	003fc706 	br	804ecc <__alt_mem_onchip_mem+0xff7fcecc>
  804fb0:	a80b883a 	mov	r5,r21
  804fb4:	9009883a 	mov	r4,r18
  804fb8:	08048240 	call	804824 <memmove>
  804fbc:	003fc906 	br	804ee4 <__alt_mem_onchip_mem+0xff7fcee4>
  804fc0:	a8800217 	ldw	r2,8(r21)
  804fc4:	b0800415 	stw	r2,16(r22)
  804fc8:	a8800317 	ldw	r2,12(r21)
  804fcc:	b0800515 	stw	r2,20(r22)
  804fd0:	31000726 	beq	r6,r4,804ff0 <_realloc_r+0x548>
  804fd4:	b0800604 	addi	r2,r22,24
  804fd8:	ad400404 	addi	r21,r21,16
  804fdc:	003fbb06 	br	804ecc <__alt_mem_onchip_mem+0xff7fcecc>
  804fe0:	a009883a 	mov	r4,r20
  804fe4:	08067300 	call	806730 <__malloc_unlock>
  804fe8:	0005883a 	mov	r2,zero
  804fec:	003f0a06 	br	804c18 <__alt_mem_onchip_mem+0xff7fcc18>
  804ff0:	a8c00417 	ldw	r3,16(r21)
  804ff4:	ad400604 	addi	r21,r21,24
  804ff8:	b0800804 	addi	r2,r22,32
  804ffc:	b0c00615 	stw	r3,24(r22)
  805000:	a8ffff17 	ldw	r3,-4(r21)
  805004:	b0c00715 	stw	r3,28(r22)
  805008:	003fb006 	br	804ecc <__alt_mem_onchip_mem+0xff7fcecc>

0080500c <_sbrk_r>:
  80500c:	defffd04 	addi	sp,sp,-12
  805010:	dc000015 	stw	r16,0(sp)
  805014:	04002074 	movhi	r16,129
  805018:	dc400115 	stw	r17,4(sp)
  80501c:	8437ad04 	addi	r16,r16,-8524
  805020:	2023883a 	mov	r17,r4
  805024:	2809883a 	mov	r4,r5
  805028:	dfc00215 	stw	ra,8(sp)
  80502c:	80000015 	stw	zero,0(r16)
  805030:	08068f00 	call	8068f0 <sbrk>
  805034:	00ffffc4 	movi	r3,-1
